TN:
SF:/__w/ros2_uav_parameters/ros2_uav_parameters/ros_ws/src/omfgzh49hik/ros2_uav_parameters/examples/parameters_usage.cpp
FN:26,_ZN11MyParameterC2ESt10shared_ptrIN6rclcpp4NodeEES0_INS1_21ParameterEventHandlerEERKNSt7__cxx1112basic_stringIcSt11char_traitsIcESaIcEEERKiN14rcl_interfaces3msg20ParameterDescriptor_ISaIvEEE
FN:38,_ZN11MyParameter17onParameterChangeERKN6rclcpp9ParameterE
FN:50,main
FNDA:1,_ZN11MyParameter17onParameterChangeERKN6rclcpp9ParameterE
FNDA:1,_ZN11MyParameterC2ESt10shared_ptrIN6rclcpp4NodeEES0_INS1_21ParameterEventHandlerEERKNSt7__cxx1112basic_stringIcSt11char_traitsIcESaIcEEERKiN14rcl_interfaces3msg20ParameterDescriptor_ISaIvEEE
FNDA:1,main
FNF:3
FNH:3
BRDA:32,0,0,1
BRDA:32,0,1,0
BRDA:40,0,0,1
BRDA:40,0,1,0
BRDA:41,0,0,0
BRDA:41,0,1,1
BRDA:41,0,2,0
BRDA:41,0,3,0
BRDA:41,0,4,0
BRDA:41,0,5,0
BRDA:41,0,6,0
BRDA:41,0,7,0
BRDA:41,0,8,1
BRDA:41,0,9,0
BRDA:41,0,10,1
BRDA:41,0,11,0
BRDA:41,0,12,1
BRDA:41,0,13,0
BRDA:53,0,0,1
BRDA:53,0,1,0
BRDA:53,0,2,1
BRDA:53,0,3,0
BRDA:53,0,4,1
BRDA:53,0,5,0
BRDA:55,0,0,1
BRDA:55,0,1,0
BRDA:57,0,0,1
BRDA:57,0,1,0
BRDA:61,0,0,1
BRDA:61,0,1,0
BRDA:62,0,0,1
BRDA:62,0,1,0
BRDA:66,0,0,1
BRDA:66,0,1,0
BRDA:66,0,2,1
BRDA:66,0,3,0
BRDA:66,0,4,1
BRDA:66,0,5,0
BRDA:68,0,0,1
BRDA:68,0,1,0
BRDA:69,0,0,1
BRDA:69,0,1,0
BRDA:69,0,2,1
BRDA:69,0,3,0
BRF:44
BRH:19
DA:26,1
DA:32,1
DA:34,1
DA:38,1
DA:40,1
DA:41,1
DA:45,1
DA:50,1
DA:53,1
DA:55,1
DA:57,1
DA:59,1
DA:61,1
DA:62,1
DA:66,2
DA:68,1
DA:69,1
DA:70,1
DA:71,1
LF:19
LH:19
end_of_record
TN:
SF:/__w/ros2_uav_parameters/ros2_uav_parameters/ros_ws/src/omfgzh49hik/ros2_uav_parameters/examples/yaml_parser_usage.cpp
FN:26,main
FNDA:1,main
FNF:1
FNH:1
BRDA:31,0,0,1
BRDA:31,0,1,0
BRDA:44,0,0,1
BRDA:44,0,1,0
BRDA:44,0,2,1
BRDA:44,0,3,0
BRDA:44,0,4,1
BRDA:44,0,5,0
BRDA:45,0,0,1
BRDA:45,0,1,0
BRDA:46,0,0,1
BRDA:46,0,1,0
BRDA:47,0,0,1
BRDA:47,0,1,0
BRDA:51,0,0,1
BRDA:51,0,1,0
BRDA:51,0,2,1
BRDA:51,0,3,0
BRDA:52,0,0,1
BRDA:52,0,1,0
BRDA:52,0,2,1
BRDA:52,0,3,0
BRDA:55,0,0,2
BRDA:55,0,1,1
BRDA:59,0,0,2
BRDA:59,0,1,0
BRDA:60,0,0,2
BRDA:60,0,1,0
BRDA:63,0,0,2
BRDA:63,0,1,0
BRDA:63,0,2,2
BRDA:63,0,3,0
BRDA:63,0,4,2
BRDA:63,0,5,0
BRDA:68,0,0,1
BRDA:68,0,1,0
BRF:36
BRH:19
DA:26,1
DA:31,1
DA:44,2
DA:45,1
DA:46,1
DA:47,1
DA:51,1
DA:52,1
DA:55,3
DA:56,2
DA:58,2
DA:59,2
DA:60,2
DA:63,2
DA:64,2
DA:68,1
DA:71,1
DA:72,1
LF:18
LH:18
end_of_record
TN:
SF:/__w/ros2_uav_parameters/ros2_uav_parameters/ros_ws/src/omfgzh49hik/ros2_uav_parameters/include/ros2_uav_parameters/auto_ros_parameters/parameters.hpp
FN:50,_ZN8uav_ros29ParameterC2ISt6vectorIbSaIbEEEESt10shared_ptrIN6rclcpp4NodeEES5_INS6_21ParameterEventHandlerEERKNSt7__cxx1112basic_stringIcSt11char_traitsIcESaIcEEERKT_RKN14rcl_interfaces3msg20ParameterDescriptor_ISaIvEEE
FN:50,_ZN8uav_ros29ParameterC2IdEESt10shared_ptrIN6rclcpp4NodeEES2_INS3_21ParameterEventHandlerEERKNSt7__cxx1112basic_stringIcSt11char_traitsIcESaIcEEERKT_RKN14rcl_interfaces3msg20ParameterDescriptor_ISaIvEEE
FN:50,_ZN8uav_ros29ParameterC2INSt7__cxx1112basic_stringIcSt11char_traitsIcESaIcEEEEESt10shared_ptrIN6rclcpp4NodeEES8_INS9_21ParameterEventHandlerEERKS7_RKT_RKN14rcl_interfaces3msg20ParameterDescriptor_ISaIvEEE
FN:50,_ZN8uav_ros29ParameterC2IN6rclcpp14ParameterValueEEESt10shared_ptrINS2_4NodeEES4_INS2_21ParameterEventHandlerEERKNSt7__cxx1112basic_stringIcSt11char_traitsIcESaIcEEERKT_RKN14rcl_interfaces3msg20ParameterDescriptor_ISaIvEEE
FN:50,_ZN8uav_ros29ParameterC2IbEESt10shared_ptrIN6rclcpp4NodeEES2_INS3_21ParameterEventHandlerEERKNSt7__cxx1112basic_stringIcSt11char_traitsIcESaIcEEERKT_RKN14rcl_interfaces3msg20ParameterDescriptor_ISaIvEEE
FN:50,_ZN8uav_ros29ParameterC2ISt6vectorINSt7__cxx1112basic_stringIcSt11char_traitsIcESaIcEEESaIS8_EEEESt10shared_ptrIN6rclcpp4NodeEESB_INSC_21ParameterEventHandlerEERKS8_RKT_RKN14rcl_interfaces3msg20ParameterDescriptor_ISaIvEEE
FN:50,_ZN8uav_ros29ParameterC2ISt6vectorIdSaIdEEEESt10shared_ptrIN6rclcpp4NodeEES5_INS6_21ParameterEventHandlerEERKNSt7__cxx1112basic_stringIcSt11char_traitsIcESaIcEEERKT_RKN14rcl_interfaces3msg20ParameterDescriptor_ISaIvEEE
FN:50,_ZN8uav_ros29ParameterC2IiEESt10shared_ptrIN6rclcpp4NodeEES2_INS3_21ParameterEventHandlerEERKNSt7__cxx1112basic_stringIcSt11char_traitsIcESaIcEEERKT_RKN14rcl_interfaces3msg20ParameterDescriptor_ISaIvEEE
FN:50,_ZN8uav_ros29ParameterC2ISt6vectorIiSaIiEEEESt10shared_ptrIN6rclcpp4NodeEES5_INS6_21ParameterEventHandlerEERKNSt7__cxx1112basic_stringIcSt11char_traitsIcESaIcEEERKT_RKN14rcl_interfaces3msg20ParameterDescriptor_ISaIvEEE
FN:58,_ZZN8uav_ros29ParameterC4ISt6vectorIiSaIiEEEESt10shared_ptrIN6rclcpp4NodeEES5_INS6_21ParameterEventHandlerEERKNSt7__cxx1112basic_stringIcSt11char_traitsIcESaIcEEERKT_RKN14rcl_interfaces3msg20ParameterDescriptor_ISaIvEEEENKUlRKNS6_9ParameterEE_clESV_
FN:58,_ZZN8uav_ros29ParameterC4ISt6vectorIdSaIdEEEESt10shared_ptrIN6rclcpp4NodeEES5_INS6_21ParameterEventHandlerEERKNSt7__cxx1112basic_stringIcSt11char_traitsIcESaIcEEERKT_RKN14rcl_interfaces3msg20ParameterDescriptor_ISaIvEEEENKUlRKNS6_9ParameterEE_clESV_
FN:58,_ZZN8uav_ros29ParameterC4IN6rclcpp14ParameterValueEEESt10shared_ptrINS2_4NodeEES4_INS2_21ParameterEventHandlerEERKNSt7__cxx1112basic_stringIcSt11char_traitsIcESaIcEEERKT_RKN14rcl_interfaces3msg20ParameterDescriptor_ISaIvEEEENKUlRKNS2_9ParameterEE_clEST_
FN:58,_ZZN8uav_ros29ParameterC4IiEESt10shared_ptrIN6rclcpp4NodeEES2_INS3_21ParameterEventHandlerEERKNSt7__cxx1112basic_stringIcSt11char_traitsIcESaIcEEERKT_RKN14rcl_interfaces3msg20ParameterDescriptor_ISaIvEEEENKUlRKNS3_9ParameterEE_clESS_
FN:58,_ZZN8uav_ros29ParameterC4INSt7__cxx1112basic_stringIcSt11char_traitsIcESaIcEEEEESt10shared_ptrIN6rclcpp4NodeEES8_INS9_21ParameterEventHandlerEERKS7_RKT_RKN14rcl_interfaces3msg20ParameterDescriptor_ISaIvEEEENKUlRKNS9_9ParameterEE_clESS_
FN:58,_ZZN8uav_ros29ParameterC4IbEESt10shared_ptrIN6rclcpp4NodeEES2_INS3_21ParameterEventHandlerEERKNSt7__cxx1112basic_stringIcSt11char_traitsIcESaIcEEERKT_RKN14rcl_interfaces3msg20ParameterDescriptor_ISaIvEEEENKUlRKNS3_9ParameterEE_clESS_
FN:58,_ZZN8uav_ros29ParameterC4ISt6vectorINSt7__cxx1112basic_stringIcSt11char_traitsIcESaIcEEESaIS8_EEEESt10shared_ptrIN6rclcpp4NodeEESB_INSC_21ParameterEventHandlerEERKS8_RKT_RKN14rcl_interfaces3msg20ParameterDescriptor_ISaIvEEEENKUlRKNSC_9ParameterEE_clESV_
FN:58,_ZZN8uav_ros29ParameterC4IdEESt10shared_ptrIN6rclcpp4NodeEES2_INS3_21ParameterEventHandlerEERKNSt7__cxx1112basic_stringIcSt11char_traitsIcESaIcEEERKT_RKN14rcl_interfaces3msg20ParameterDescriptor_ISaIvEEEENKUlRKNS3_9ParameterEE_clESS_
FN:58,_ZZN8uav_ros29ParameterC4ISt6vectorIbSaIbEEEESt10shared_ptrIN6rclcpp4NodeEES5_INS6_21ParameterEventHandlerEERKNSt7__cxx1112basic_stringIcSt11char_traitsIcESaIcEEERKT_RKN14rcl_interfaces3msg20ParameterDescriptor_ISaIvEEEENKUlRKNS6_9ParameterEE_clESV_
FNDA:2,_ZN8uav_ros29ParameterC2IiEESt10shared_ptrIN6rclcpp4NodeEES2_INS3_21ParameterEventHandlerEERKNSt7__cxx1112basic_stringIcSt11char_traitsIcESaIcEEERKT_RKN14rcl_interfaces3msg20ParameterDescriptor_ISaIvEEE
FNDA:0,_ZN8uav_ros29ParameterC2ISt6vectorIdSaIdEEEESt10shared_ptrIN6rclcpp4NodeEES5_INS6_21ParameterEventHandlerEERKNSt7__cxx1112basic_stringIcSt11char_traitsIcESaIcEEERKT_RKN14rcl_interfaces3msg20ParameterDescriptor_ISaIvEEE
FNDA:0,_ZN8uav_ros29ParameterC2ISt6vectorIiSaIiEEEESt10shared_ptrIN6rclcpp4NodeEES5_INS6_21ParameterEventHandlerEERKNSt7__cxx1112basic_stringIcSt11char_traitsIcESaIcEEERKT_RKN14rcl_interfaces3msg20ParameterDescriptor_ISaIvEEE
FNDA:0,_ZZN8uav_ros29ParameterC4ISt6vectorIbSaIbEEEESt10shared_ptrIN6rclcpp4NodeEES5_INS6_21ParameterEventHandlerEERKNSt7__cxx1112basic_stringIcSt11char_traitsIcESaIcEEERKT_RKN14rcl_interfaces3msg20ParameterDescriptor_ISaIvEEEENKUlRKNS6_9ParameterEE_clESV_
FNDA:0,_ZZN8uav_ros29ParameterC4IdEESt10shared_ptrIN6rclcpp4NodeEES2_INS3_21ParameterEventHandlerEERKNSt7__cxx1112basic_stringIcSt11char_traitsIcESaIcEEERKT_RKN14rcl_interfaces3msg20ParameterDescriptor_ISaIvEEEENKUlRKNS3_9ParameterEE_clESS_
FNDA:0,_ZZN8uav_ros29ParameterC4ISt6vectorIiSaIiEEEESt10shared_ptrIN6rclcpp4NodeEES5_INS6_21ParameterEventHandlerEERKNSt7__cxx1112basic_stringIcSt11char_traitsIcESaIcEEERKT_RKN14rcl_interfaces3msg20ParameterDescriptor_ISaIvEEEENKUlRKNS6_9ParameterEE_clESV_
FNDA:0,_ZN8uav_ros29ParameterC2IdEESt10shared_ptrIN6rclcpp4NodeEES2_INS3_21ParameterEventHandlerEERKNSt7__cxx1112basic_stringIcSt11char_traitsIcESaIcEEERKT_RKN14rcl_interfaces3msg20ParameterDescriptor_ISaIvEEE
FNDA:0,_ZN8uav_ros29ParameterC2ISt6vectorIbSaIbEEEESt10shared_ptrIN6rclcpp4NodeEES5_INS6_21ParameterEventHandlerEERKNSt7__cxx1112basic_stringIcSt11char_traitsIcESaIcEEERKT_RKN14rcl_interfaces3msg20ParameterDescriptor_ISaIvEEE
FNDA:16,_ZZN8uav_ros29ParameterC4IN6rclcpp14ParameterValueEEESt10shared_ptrINS2_4NodeEES4_INS2_21ParameterEventHandlerEERKNSt7__cxx1112basic_stringIcSt11char_traitsIcESaIcEEERKT_RKN14rcl_interfaces3msg20ParameterDescriptor_ISaIvEEEENKUlRKNS2_9ParameterEE_clEST_
FNDA:0,_ZZN8uav_ros29ParameterC4ISt6vectorIdSaIdEEEESt10shared_ptrIN6rclcpp4NodeEES5_INS6_21ParameterEventHandlerEERKNSt7__cxx1112basic_stringIcSt11char_traitsIcESaIcEEERKT_RKN14rcl_interfaces3msg20ParameterDescriptor_ISaIvEEEENKUlRKNS6_9ParameterEE_clESV_
FNDA:4,_ZZN8uav_ros29ParameterC4INSt7__cxx1112basic_stringIcSt11char_traitsIcESaIcEEEEESt10shared_ptrIN6rclcpp4NodeEES8_INS9_21ParameterEventHandlerEERKS7_RKT_RKN14rcl_interfaces3msg20ParameterDescriptor_ISaIvEEEENKUlRKNS9_9ParameterEE_clESS_
FNDA:8,_ZN8uav_ros29ParameterC2IN6rclcpp14ParameterValueEEESt10shared_ptrINS2_4NodeEES4_INS2_21ParameterEventHandlerEERKNSt7__cxx1112basic_stringIcSt11char_traitsIcESaIcEEERKT_RKN14rcl_interfaces3msg20ParameterDescriptor_ISaIvEEE
FNDA:4,_ZN8uav_ros29ParameterC2INSt7__cxx1112basic_stringIcSt11char_traitsIcESaIcEEEEESt10shared_ptrIN6rclcpp4NodeEES8_INS9_21ParameterEventHandlerEERKS7_RKT_RKN14rcl_interfaces3msg20ParameterDescriptor_ISaIvEEE
FNDA:2,_ZZN8uav_ros29ParameterC4IiEESt10shared_ptrIN6rclcpp4NodeEES2_INS3_21ParameterEventHandlerEERKNSt7__cxx1112basic_stringIcSt11char_traitsIcESaIcEEERKT_RKN14rcl_interfaces3msg20ParameterDescriptor_ISaIvEEEENKUlRKNS3_9ParameterEE_clESS_
FNDA:0,_ZN8uav_ros29ParameterC2IbEESt10shared_ptrIN6rclcpp4NodeEES2_INS3_21ParameterEventHandlerEERKNSt7__cxx1112basic_stringIcSt11char_traitsIcESaIcEEERKT_RKN14rcl_interfaces3msg20ParameterDescriptor_ISaIvEEE
FNDA:0,_ZZN8uav_ros29ParameterC4ISt6vectorINSt7__cxx1112basic_stringIcSt11char_traitsIcESaIcEEESaIS8_EEEESt10shared_ptrIN6rclcpp4NodeEESB_INSC_21ParameterEventHandlerEERKS8_RKT_RKN14rcl_interfaces3msg20ParameterDescriptor_ISaIvEEEENKUlRKNSC_9ParameterEE_clESV_
FNDA:0,_ZN8uav_ros29ParameterC2ISt6vectorINSt7__cxx1112basic_stringIcSt11char_traitsIcESaIcEEESaIS8_EEEESt10shared_ptrIN6rclcpp4NodeEESB_INSC_21ParameterEventHandlerEERKS8_RKT_RKN14rcl_interfaces3msg20ParameterDescriptor_ISaIvEEE
FNDA:0,_ZZN8uav_ros29ParameterC4IbEESt10shared_ptrIN6rclcpp4NodeEES2_INS3_21ParameterEventHandlerEERKNSt7__cxx1112basic_stringIcSt11char_traitsIcESaIcEEERKT_RKN14rcl_interfaces3msg20ParameterDescriptor_ISaIvEEEENKUlRKNS3_9ParameterEE_clESS_
FNF:18
FNH:6
BRDA:54,0,0,14
BRDA:54,0,1,0
BRDA:56,0,0,14
BRDA:56,0,1,0
BRDA:57,0,0,14
BRDA:57,0,1,0
BRDA:58,0,0,14
BRDA:58,0,1,0
BRF:8
BRH:4
DA:50,14
DA:54,14
DA:56,14
DA:57,28
DA:58,19
DA:59,22
DA:60,14
LF:7
LH:7
end_of_record
TN:
SF:/__w/ros2_uav_parameters/ros2_uav_parameters/ros_ws/src/omfgzh49hik/ros2_uav_parameters/include/ros2_uav_parameters/auto_ros_parameters/utils.hpp
FN:29,_ZN8uav_ros25utils22doubleToStringTrimZeroB5cxx11Ed
FNDA:13,_ZN8uav_ros25utils22doubleToStringTrimZeroB5cxx11Ed
FNF:1
FNH:1
BRDA:31,0,0,13
BRDA:31,0,1,0
BRDA:32,0,0,13
BRDA:32,0,1,0
BRF:4
BRH:2
DA:29,13
DA:31,13
DA:32,13
DA:33,26
DA:34,13
LF:5
LH:5
end_of_record
TN:
SF:/__w/ros2_uav_parameters/ros2_uav_parameters/ros_ws/src/omfgzh49hik/ros2_uav_parameters/src/auto_ros_parameters/parameters.cpp
FN:20,_ZN8uav_ros29Parameter17onParameterChangeERKN6rclcpp9ParameterE
FN:24,_ZN8uav_ros29Parameter17parameterCallbackERKN6rclcpp9ParameterE
FN:30,_ZN8uav_ros29Parameter9logChangeERKN6rclcpp9ParameterE
FNDA:22,_ZN8uav_ros29Parameter9logChangeERKN6rclcpp9ParameterE
FNDA:5,_ZN8uav_ros29Parameter17onParameterChangeERKN6rclcpp9ParameterE
FNDA:22,_ZN8uav_ros29Parameter17parameterCallbackERKN6rclcpp9ParameterE
FNF:3
FNH:3
BRDA:32,0,0,2
BRDA:32,0,1,4
BRDA:32,0,2,2
BRDA:32,0,3,6
BRDA:32,0,4,2
BRDA:32,0,5,2
BRDA:32,0,6,2
BRDA:32,0,7,2
BRDA:32,0,8,0
BRDA:34,0,0,0
BRDA:34,0,1,2
BRDA:34,0,2,0
BRDA:34,0,3,0
BRDA:34,0,4,0
BRDA:34,0,5,0
BRDA:34,0,6,0
BRDA:34,0,7,0
BRDA:34,0,8,2
BRDA:34,0,9,0
BRDA:34,0,10,2
BRDA:34,0,11,0
BRDA:34,0,12,2
BRDA:34,0,13,0
BRDA:34,0,14,2
BRDA:34,0,15,0
BRDA:40,0,0,0
BRDA:40,0,1,4
BRDA:40,0,2,0
BRDA:40,0,3,0
BRDA:40,0,4,0
BRDA:40,0,5,0
BRDA:40,0,6,0
BRDA:40,0,7,0
BRDA:40,0,8,4
BRDA:40,0,9,0
BRDA:40,0,10,4
BRDA:40,0,11,0
BRDA:40,0,12,4
BRDA:40,0,13,0
BRDA:46,0,0,0
BRDA:46,0,1,2
BRDA:46,0,2,0
BRDA:46,0,3,0
BRDA:46,0,4,0
BRDA:46,0,5,0
BRDA:46,0,6,0
BRDA:46,0,7,0
BRDA:46,0,8,2
BRDA:46,0,9,0
BRDA:46,0,10,2
BRDA:46,0,11,0
BRDA:46,0,12,2
BRDA:46,0,13,0
BRDA:46,0,14,2
BRDA:46,0,15,0
BRDA:52,0,0,0
BRDA:52,0,1,6
BRDA:52,0,2,0
BRDA:52,0,3,0
BRDA:52,0,4,0
BRDA:52,0,5,0
BRDA:52,0,6,0
BRDA:52,0,7,0
BRDA:52,0,8,6
BRDA:52,0,9,0
BRDA:52,0,10,6
BRDA:52,0,11,0
BRDA:52,0,12,6
BRDA:52,0,13,0
BRDA:60,0,0,2
BRDA:60,0,1,0
BRDA:61,0,0,2
BRDA:61,0,1,0
BRDA:61,0,2,4
BRDA:61,0,3,2
BRDA:62,0,0,2
BRDA:62,0,1,2
BRDA:63,0,0,2
BRDA:63,0,1,0
BRDA:66,0,0,2
BRDA:66,0,1,2
BRDA:66,0,2,4
BRDA:66,0,3,0
BRDA:68,0,0,2
BRDA:68,0,1,0
BRDA:69,0,0,0
BRDA:69,0,1,2
BRDA:69,0,2,0
BRDA:69,0,3,0
BRDA:69,0,4,0
BRDA:69,0,5,0
BRDA:69,0,6,0
BRDA:69,0,7,0
BRDA:69,0,8,0
BRDA:69,0,9,0
BRDA:69,0,10,0
BRDA:69,0,11,0
BRDA:69,0,12,0
BRDA:69,0,13,0
BRDA:69,0,14,0
BRDA:69,0,15,0
BRDA:69,0,16,0
BRDA:69,0,17,0
BRDA:69,0,18,2
BRDA:69,0,19,0
BRDA:69,0,20,2
BRDA:69,0,21,0
BRDA:69,0,22,2
BRDA:69,0,23,0
BRDA:69,0,24,2
BRDA:69,0,25,0
BRDA:69,0,26,2
BRDA:69,0,27,0
BRDA:77,0,0,2
BRDA:77,0,1,0
BRDA:79,0,0,2
BRDA:79,0,1,0
BRDA:79,0,2,6
BRDA:79,0,3,2
BRDA:80,0,0,4
BRDA:80,0,1,2
BRDA:81,0,0,4
BRDA:81,0,1,0
BRDA:84,0,0,6
BRDA:84,0,1,0
BRDA:84,0,2,6
BRDA:84,0,3,0
BRDA:86,0,0,2
BRDA:86,0,1,0
BRDA:87,0,0,0
BRDA:87,0,1,2
BRDA:87,0,2,0
BRDA:87,0,3,0
BRDA:87,0,4,0
BRDA:87,0,5,0
BRDA:87,0,6,0
BRDA:87,0,7,0
BRDA:87,0,8,0
BRDA:87,0,9,0
BRDA:87,0,10,0
BRDA:87,0,11,0
BRDA:87,0,12,0
BRDA:87,0,13,0
BRDA:87,0,14,0
BRDA:87,0,15,0
BRDA:87,0,16,0
BRDA:87,0,17,0
BRDA:87,0,18,2
BRDA:87,0,19,0
BRDA:87,0,20,2
BRDA:87,0,21,0
BRDA:87,0,22,2
BRDA:87,0,23,0
BRDA:87,0,24,2
BRDA:87,0,25,0
BRDA:87,0,26,2
BRDA:87,0,27,0
BRDA:95,0,0,2
BRDA:95,0,1,0
BRDA:97,0,0,2
BRDA:97,0,1,0
BRDA:97,0,2,6
BRDA:97,0,3,2
BRDA:98,0,0,4
BRDA:98,0,1,2
BRDA:99,0,0,4
BRDA:99,0,1,0
BRDA:102,0,0,6
BRDA:102,0,1,0
BRDA:102,0,2,6
BRDA:102,0,3,0
BRDA:104,0,0,2
BRDA:104,0,1,0
BRDA:105,0,0,0
BRDA:105,0,1,2
BRDA:105,0,2,0
BRDA:105,0,3,0
BRDA:105,0,4,0
BRDA:105,0,5,0
BRDA:105,0,6,0
BRDA:105,0,7,0
BRDA:105,0,8,0
BRDA:105,0,9,0
BRDA:105,0,10,0
BRDA:105,0,11,0
BRDA:105,0,12,0
BRDA:105,0,13,0
BRDA:105,0,14,0
BRDA:105,0,15,0
BRDA:105,0,16,0
BRDA:105,0,17,0
BRDA:105,0,18,2
BRDA:105,0,19,0
BRDA:105,0,20,2
BRDA:105,0,21,0
BRDA:105,0,22,2
BRDA:105,0,23,0
BRDA:105,0,24,2
BRDA:105,0,25,0
BRDA:105,0,26,2
BRDA:105,0,27,0
BRDA:113,0,0,2
BRDA:113,0,1,0
BRDA:115,0,0,2
BRDA:115,0,1,0
BRDA:115,0,2,6
BRDA:115,0,3,2
BRDA:116,0,0,4
BRDA:116,0,1,2
BRDA:117,0,0,4
BRDA:117,0,1,0
BRDA:120,0,0,6
BRDA:120,0,1,0
BRDA:122,0,0,2
BRDA:122,0,1,0
BRDA:123,0,0,0
BRDA:123,0,1,2
BRDA:123,0,2,0
BRDA:123,0,3,0
BRDA:123,0,4,0
BRDA:123,0,5,0
BRDA:123,0,6,0
BRDA:123,0,7,0
BRDA:123,0,8,0
BRDA:123,0,9,0
BRDA:123,0,10,0
BRDA:123,0,11,0
BRDA:123,0,12,0
BRDA:123,0,13,0
BRDA:123,0,14,0
BRDA:123,0,15,0
BRDA:123,0,16,0
BRDA:123,0,17,0
BRDA:123,0,18,2
BRDA:123,0,19,0
BRDA:123,0,20,2
BRDA:123,0,21,0
BRDA:123,0,22,2
BRDA:123,0,23,0
BRDA:123,0,24,2
BRDA:123,0,25,0
BRDA:123,0,26,2
BRDA:123,0,27,0
BRF:243
BRH:90
DA:20,5
DA:22,5
DA:24,22
DA:26,22
DA:27,22
DA:28,22
DA:30,22
DA:32,22
DA:33,2
DA:34,2
DA:37,2
DA:39,4
DA:40,4
DA:43,4
DA:45,2
DA:46,2
DA:49,2
DA:51,6
DA:52,6
DA:55,6
DA:57,2
DA:59,2
DA:60,2
DA:61,6
DA:62,4
DA:63,2
DA:65,4
DA:66,4
DA:68,2
DA:69,2
DA:72,2
DA:73,2
DA:75,2
DA:77,2
DA:78,2
DA:79,8
DA:80,6
DA:81,4
DA:83,6
DA:84,6
DA:86,2
DA:87,2
DA:90,2
DA:91,2
DA:93,2
DA:95,2
DA:96,2
DA:97,8
DA:98,6
DA:99,4
DA:101,6
DA:102,6
DA:104,2
DA:105,2
DA:108,2
DA:109,2
DA:111,2
DA:113,2
DA:114,2
DA:115,8
DA:116,6
DA:117,4
DA:119,6
DA:120,6
DA:122,2
DA:123,2
DA:126,2
DA:127,2
DA:135,22
LF:69
LH:69
end_of_record
TN:
SF:/__w/ros2_uav_parameters/ros2_uav_parameters/ros_ws/src/omfgzh49hik/ros2_uav_parameters/src/auto_ros_parameters/yaml_parameter_parser.cpp
FN:27,_ZN8uav_ros219YamlParameterParserC2ERKNSt7__cxx1112basic_stringIcSt11char_traitsIcESaIcEEE
FN:33,_ZNK8uav_ros219YamlParameterParser13getParametersB5cxx11Ev
FN:38,_ZN8uav_ros219YamlParameterParser13parseYamlFileERKNSt7__cxx1112basic_stringIcSt11char_traitsIcESaIcEEE
FNDA:6,_ZNK8uav_ros219YamlParameterParser13getParametersB5cxx11Ev
FNDA:13,_ZN8uav_ros219YamlParameterParserC2ERKNSt7__cxx1112basic_stringIcSt11char_traitsIcESaIcEEE
FNDA:13,_ZN8uav_ros219YamlParameterParser13parseYamlFileERKNSt7__cxx1112basic_stringIcSt11char_traitsIcESaIcEEE
FNF:3
FNH:3
BRDA:29,0,0,6
BRDA:29,0,1,7
BRDA:40,0,0,13
BRDA:40,0,1,0
BRDA:41,0,0,13
BRDA:41,0,1,0
BRDA:41,0,2,1
BRDA:41,0,3,12
BRDA:42,0,0,1
BRDA:42,0,1,0
BRDA:44,0,0,12
BRDA:44,0,1,0
BRDA:44,0,2,12
BRDA:44,0,3,0
BRDA:44,0,4,12
BRDA:44,0,5,0
BRDA:44,0,6,6
BRDA:44,0,7,0
BRDA:44,0,8,18
BRDA:44,0,9,0
BRDA:44,0,10,12
BRDA:44,0,11,6
BRDA:45,0,0,12
BRDA:45,0,1,0
BRDA:45,0,2,1
BRDA:45,0,3,11
BRDA:46,0,0,1
BRDA:46,0,1,0
BRDA:48,0,0,11
BRDA:48,0,1,0
BRDA:49,0,0,11
BRDA:49,0,1,0
BRDA:49,0,2,11
BRDA:49,0,3,0
BRDA:49,0,4,20
BRDA:49,0,5,0
BRDA:49,0,6,15
BRDA:49,0,7,0
BRDA:49,0,8,26
BRDA:49,0,9,0
BRDA:49,0,10,20
BRDA:49,0,11,6
BRDA:50,0,0,20
BRDA:50,0,1,0
BRDA:50,0,2,1
BRDA:50,0,3,19
BRDA:51,0,0,1
BRDA:51,0,1,0
BRDA:54,0,0,19
BRDA:54,0,1,0
BRDA:55,0,0,19
BRDA:55,0,1,0
BRDA:55,0,2,19
BRDA:55,0,3,0
BRDA:56,0,0,19
BRDA:56,0,1,0
BRDA:58,0,0,19
BRDA:58,0,1,0
BRDA:58,0,2,19
BRDA:58,0,3,0
BRDA:58,0,4,18
BRDA:58,0,5,1
BRDA:58,0,6,18
BRDA:58,0,7,0
BRDA:58,0,8,18
BRDA:58,0,9,0
BRDA:58,0,10,0
BRDA:58,0,11,18
BRDA:58,0,12,18
BRDA:58,0,13,1
BRDA:58,0,14,19
BRDA:58,0,15,0
BRDA:58,0,16,1
BRDA:58,0,17,18
BRDA:58,0,18,0
BRDA:58,0,19,0
BRDA:58,0,20,0
BRDA:58,0,21,0
BRDA:59,0,0,1
BRDA:59,0,1,0
BRDA:60,0,0,1
BRDA:60,0,1,0
BRDA:60,0,2,1
BRDA:60,0,3,0
BRDA:60,0,4,1
BRDA:60,0,5,0
BRDA:61,0,0,1
BRDA:61,0,1,0
BRDA:61,0,2,1
BRDA:61,0,3,0
BRDA:64,0,0,18
BRDA:64,0,1,0
BRDA:66,0,0,18
BRDA:66,0,1,0
BRDA:66,0,2,18
BRDA:66,0,3,0
BRDA:66,0,4,5
BRDA:66,0,5,13
BRDA:66,0,6,5
BRDA:66,0,7,0
BRDA:66,0,8,5
BRDA:66,0,9,0
BRDA:66,0,10,13
BRDA:66,0,11,0
BRDA:66,0,12,13
BRDA:66,0,13,5
BRDA:66,0,14,5
BRDA:66,0,15,13
BRDA:66,0,16,0
BRDA:66,0,17,0
BRDA:66,0,18,0
BRDA:66,0,19,0
BRDA:67,0,0,18
BRDA:67,0,1,0
BRDA:67,0,2,18
BRDA:67,0,3,0
BRDA:67,0,4,3
BRDA:67,0,5,15
BRDA:69,0,0,3
BRDA:69,0,1,0
BRDA:69,0,2,3
BRDA:69,0,3,0
BRDA:72,0,0,18
BRDA:72,0,1,0
BRDA:72,0,2,18
BRDA:72,0,3,0
BRDA:74,0,0,18
BRDA:74,0,1,0
BRDA:74,0,2,18
BRDA:74,0,3,0
BRDA:74,0,4,5
BRDA:74,0,5,13
BRDA:76,0,0,1
BRDA:76,0,1,4
BRDA:77,0,0,1
BRDA:77,0,1,0
BRDA:77,0,2,1
BRDA:77,0,3,0
BRDA:78,0,0,1
BRDA:78,0,1,0
BRDA:79,0,0,1
BRDA:79,0,1,3
BRDA:80,0,0,1
BRDA:80,0,1,0
BRDA:80,0,2,1
BRDA:80,0,3,0
BRDA:81,0,0,1
BRDA:81,0,1,0
BRDA:82,0,0,1
BRDA:82,0,1,2
BRDA:83,0,0,1
BRDA:83,0,1,0
BRDA:83,0,2,1
BRDA:83,0,3,0
BRDA:84,0,0,1
BRDA:84,0,1,0
BRDA:85,0,0,1
BRDA:85,0,1,1
BRDA:87,0,0,1
BRDA:87,0,1,0
BRDA:87,0,2,1
BRDA:87,0,3,0
BRDA:88,0,0,1
BRDA:88,0,1,0
BRDA:90,0,0,1
BRDA:90,0,1,0
BRDA:91,0,0,1
BRDA:91,0,1,0
BRDA:91,0,2,1
BRDA:91,0,3,0
BRDA:91,0,4,1
BRDA:91,0,5,0
BRDA:91,0,6,1
BRDA:91,0,7,0
BRDA:92,0,0,1
BRDA:92,0,1,0
BRDA:92,0,2,1
BRDA:92,0,3,0
BRDA:94,0,0,13
BRDA:94,0,1,0
BRDA:94,0,2,13
BRDA:94,0,3,0
BRDA:94,0,4,12
BRDA:94,0,5,1
BRDA:96,0,0,4
BRDA:96,0,1,8
BRDA:97,0,0,4
BRDA:97,0,1,0
BRDA:97,0,2,4
BRDA:97,0,3,0
BRDA:98,0,0,4
BRDA:98,0,1,0
BRDA:98,0,2,4
BRDA:98,0,3,0
BRDA:98,0,4,2
BRDA:98,0,5,2
BRDA:98,0,6,2
BRDA:98,0,7,0
BRDA:98,0,8,2
BRDA:98,0,9,0
BRDA:98,0,10,0
BRDA:98,0,11,2
BRDA:98,0,12,2
BRDA:98,0,13,2
BRDA:98,0,14,4
BRDA:98,0,15,0
BRDA:98,0,16,2
BRDA:98,0,17,2
BRDA:98,0,18,0
BRDA:98,0,19,0
BRDA:98,0,20,0
BRDA:98,0,21,0
BRDA:101,0,0,2
BRDA:101,0,1,0
BRDA:101,0,2,2
BRDA:101,0,3,0
BRDA:101,0,4,2
BRDA:101,0,5,0
BRDA:101,0,6,2
BRDA:101,0,7,0
BRDA:101,0,8,2
BRDA:101,0,9,0
BRDA:101,0,10,2
BRDA:101,0,11,0
BRDA:101,0,12,0
BRDA:101,0,13,0
BRDA:103,0,0,2
BRDA:103,0,1,0
BRDA:103,0,2,2
BRDA:103,0,3,0
BRDA:103,0,4,2
BRDA:103,0,5,0
BRDA:103,0,6,2
BRDA:103,0,7,0
BRDA:103,0,8,2
BRDA:103,0,9,0
BRDA:103,0,10,2
BRDA:103,0,11,0
BRDA:103,0,12,0
BRDA:103,0,13,0
BRDA:104,0,0,2
BRDA:104,0,1,0
BRDA:104,0,2,2
BRDA:104,0,3,0
BRDA:106,0,0,4
BRDA:106,0,1,0
BRDA:107,0,0,2
BRDA:107,0,1,6
BRDA:108,0,0,2
BRDA:108,0,1,0
BRDA:108,0,2,2
BRDA:108,0,3,0
BRDA:109,0,0,2
BRDA:109,0,1,0
BRDA:109,0,2,2
BRDA:109,0,3,0
BRDA:109,0,4,1
BRDA:109,0,5,1
BRDA:109,0,6,1
BRDA:109,0,7,0
BRDA:109,0,8,1
BRDA:109,0,9,0
BRDA:109,0,10,0
BRDA:109,0,11,1
BRDA:109,0,12,1
BRDA:109,0,13,1
BRDA:109,0,14,2
BRDA:109,0,15,0
BRDA:109,0,16,1
BRDA:109,0,17,1
BRDA:109,0,18,0
BRDA:109,0,19,0
BRDA:109,0,20,0
BRDA:109,0,21,0
BRDA:112,0,0,1
BRDA:112,0,1,0
BRDA:112,0,2,1
BRDA:112,0,3,0
BRDA:112,0,4,1
BRDA:112,0,5,0
BRDA:112,0,6,0
BRDA:112,0,7,0
BRDA:113,0,0,1
BRDA:113,0,1,0
BRDA:113,0,2,1
BRDA:113,0,3,0
BRDA:113,0,4,1
BRDA:113,0,5,0
BRDA:115,0,0,1
BRDA:115,0,1,0
BRDA:115,0,2,1
BRDA:115,0,3,0
BRDA:115,0,4,1
BRDA:115,0,5,0
BRDA:115,0,6,0
BRDA:115,0,7,0
BRDA:116,0,0,1
BRDA:116,0,1,0
BRDA:116,0,2,1
BRDA:116,0,3,0
BRDA:116,0,4,1
BRDA:116,0,5,0
BRDA:117,0,0,1
BRDA:117,0,1,0
BRDA:117,0,2,1
BRDA:117,0,3,0
BRDA:119,0,0,2
BRDA:119,0,1,0
BRDA:120,0,0,1
BRDA:120,0,1,5
BRDA:121,0,0,1
BRDA:121,0,1,0
BRDA:121,0,2,1
BRDA:121,0,3,0
BRDA:122,0,0,1
BRDA:122,0,1,0
BRDA:123,0,0,4
BRDA:123,0,1,1
BRDA:124,0,0,4
BRDA:124,0,1,0
BRDA:124,0,2,4
BRDA:124,0,3,0
BRDA:125,0,0,4
BRDA:125,0,1,0
BRDA:127,0,0,1
BRDA:127,0,1,0
BRDA:128,0,0,1
BRDA:128,0,1,0
BRDA:128,0,2,1
BRDA:128,0,3,0
BRDA:128,0,4,1
BRDA:128,0,5,0
BRDA:128,0,6,1
BRDA:128,0,7,0
BRDA:129,0,0,1
BRDA:129,0,1,0
BRDA:129,0,2,1
BRDA:129,0,3,0
BRDA:132,0,0,1
BRDA:132,0,1,0
BRF:340
BRH:187
DA:27,13
DA:29,13
DA:30,13
DA:33,6
DA:35,6
DA:38,13
DA:40,13
DA:41,13
DA:42,1
DA:44,18
DA:45,12
DA:46,1
DA:48,11
DA:49,26
DA:50,20
DA:51,1
DA:54,19
DA:55,19
DA:56,19
DA:58,19
DA:59,1
DA:60,1
DA:61,1
DA:62,1
DA:64,18
DA:66,18
DA:67,18
DA:69,3
DA:72,18
DA:74,18
DA:76,5
DA:77,1
DA:78,1
DA:79,5
DA:80,1
DA:81,1
DA:82,4
DA:83,1
DA:84,1
DA:85,3
DA:87,1
DA:88,1
DA:89,1
DA:90,1
DA:91,1
DA:92,1
DA:93,1
DA:94,13
DA:96,12
DA:97,4
DA:98,4
DA:99,2
DA:100,2
DA:101,2
DA:102,2
DA:103,2
DA:104,2
DA:106,4
DA:107,8
DA:108,2
DA:109,2
DA:110,1
DA:111,1
DA:112,1
DA:113,2
DA:114,1
DA:115,1
DA:116,2
DA:117,1
DA:119,2
DA:120,6
DA:121,1
DA:122,1
DA:123,5
DA:124,4
DA:125,4
DA:126,4
DA:127,1
DA:128,1
DA:129,1
DA:130,1
DA:132,1
DA:133,2
DA:135,54
DA:136,35
DA:137,13
LF:86
LH:86
end_of_record
TN:
SF:/__w/ros2_uav_parameters/ros2_uav_parameters/ros_ws/src/omfgzh49hik/ros2_uav_parameters/src/parameter_server.cpp
FN:30,_ZN10ServerNodeC2Ev
FN:37,_ZNK10ServerNode24getParameterEventHandlerEv
FN:42,_ZN10ServerNode14initParametersERKN8uav_ros219YamlParameterParserE
FN:54,_ZN10ServerNode27loadParametersFromDirectoryEv
FN:72,_ZN10ServerNode12addParameterERKNSt7__cxx1112basic_stringIcSt11char_traitsIcESaIcEEERKSt7variantIJidS5_bSt6vectorIiSaIiEES9_IdSaIdEES9_IS5_SaIS5_EES9_IbSaIbEEEERKN14rcl_interfaces3msg20ParameterDescriptor_ISaIvEEE
FN:77,_ZZN10ServerNode12addParameterERKNSt7__cxx1112basic_stringIcSt11char_traitsIcESaIcEEERKSt7variantIJidS5_bSt6vectorIiSaIiEES9_IdSaIdEES9_IS5_SaIS5_EES9_IbSaIbEEEERKN14rcl_interfaces3msg20ParameterDescriptor_ISaIvEEEENKUlOT_E_clIRKbEEDaST_
FN:77,_ZZN10ServerNode12addParameterERKNSt7__cxx1112basic_stringIcSt11char_traitsIcESaIcEEERKSt7variantIJidS5_bSt6vectorIiSaIiEES9_IdSaIdEES9_IS5_SaIS5_EES9_IbSaIbEEEERKN14rcl_interfaces3msg20ParameterDescriptor_ISaIvEEEENKUlOT_E_clIRKdEEDaST_
FN:77,_ZZN10ServerNode12addParameterERKNSt7__cxx1112basic_stringIcSt11char_traitsIcESaIcEEERKSt7variantIJidS5_bSt6vectorIiSaIiEES9_IdSaIdEES9_IS5_SaIS5_EES9_IbSaIbEEEERKN14rcl_interfaces3msg20ParameterDescriptor_ISaIvEEEENKUlOT_E_clIRKSF_EEDaST_
FN:77,_ZZN10ServerNode12addParameterERKNSt7__cxx1112basic_stringIcSt11char_traitsIcESaIcEEERKSt7variantIJidS5_bSt6vectorIiSaIiEES9_IdSaIdEES9_IS5_SaIS5_EES9_IbSaIbEEEERKN14rcl_interfaces3msg20ParameterDescriptor_ISaIvEEEENKUlOT_E_clIRKSH_EEDaST_
FN:77,_ZZN10ServerNode12addParameterERKNSt7__cxx1112basic_stringIcSt11char_traitsIcESaIcEEERKSt7variantIJidS5_bSt6vectorIiSaIiEES9_IdSaIdEES9_IS5_SaIS5_EES9_IbSaIbEEEERKN14rcl_interfaces3msg20ParameterDescriptor_ISaIvEEEENKUlOT_E_clIRKSD_EEDaST_
FN:77,_ZZN10ServerNode12addParameterERKNSt7__cxx1112basic_stringIcSt11char_traitsIcESaIcEEERKSt7variantIJidS5_bSt6vectorIiSaIiEES9_IdSaIdEES9_IS5_SaIS5_EES9_IbSaIbEEEERKN14rcl_interfaces3msg20ParameterDescriptor_ISaIvEEEENKUlOT_E_clIRKSB_EEDaST_
FN:77,_ZZN10ServerNode12addParameterERKNSt7__cxx1112basic_stringIcSt11char_traitsIcESaIcEEERKSt7variantIJidS5_bSt6vectorIiSaIiEES9_IdSaIdEES9_IS5_SaIS5_EES9_IbSaIbEEEERKN14rcl_interfaces3msg20ParameterDescriptor_ISaIvEEEENKUlOT_E_clIRKiEEDaST_
FN:77,_ZZN10ServerNode12addParameterERKNSt7__cxx1112basic_stringIcSt11char_traitsIcESaIcEEERKSt7variantIJidS5_bSt6vectorIiSaIiEES9_IdSaIdEES9_IS5_SaIS5_EES9_IbSaIbEEEERKN14rcl_interfaces3msg20ParameterDescriptor_ISaIvEEEENKUlOT_E_clIS7_EEDaST_
FN:91,main
FNDA:3,_ZNK10ServerNode24getParameterEventHandlerEv
FNDA:2,_ZN10ServerNode12addParameterERKNSt7__cxx1112basic_stringIcSt11char_traitsIcESaIcEEERKSt7variantIJidS5_bSt6vectorIiSaIiEES9_IdSaIdEES9_IS5_SaIS5_EES9_IbSaIbEEEERKN14rcl_interfaces3msg20ParameterDescriptor_ISaIvEEE
FNDA:0,_ZZN10ServerNode12addParameterERKNSt7__cxx1112basic_stringIcSt11char_traitsIcESaIcEEERKSt7variantIJidS5_bSt6vectorIiSaIiEES9_IdSaIdEES9_IS5_SaIS5_EES9_IbSaIbEEEERKN14rcl_interfaces3msg20ParameterDescriptor_ISaIvEEEENKUlOT_E_clIRKbEEDaST_
FNDA:3,_ZN10ServerNode27loadParametersFromDirectoryEv
FNDA:0,_ZZN10ServerNode12addParameterERKNSt7__cxx1112basic_stringIcSt11char_traitsIcESaIcEEERKSt7variantIJidS5_bSt6vectorIiSaIiEES9_IdSaIdEES9_IS5_SaIS5_EES9_IbSaIbEEEERKN14rcl_interfaces3msg20ParameterDescriptor_ISaIvEEEENKUlOT_E_clIRKdEEDaST_
FNDA:2,_ZN10ServerNode14initParametersERKN8uav_ros219YamlParameterParserE
FNDA:1,_ZZN10ServerNode12addParameterERKNSt7__cxx1112basic_stringIcSt11char_traitsIcESaIcEEERKSt7variantIJidS5_bSt6vectorIiSaIiEES9_IdSaIdEES9_IS5_SaIS5_EES9_IbSaIbEEEERKN14rcl_interfaces3msg20ParameterDescriptor_ISaIvEEEENKUlOT_E_clIS7_EEDaST_
FNDA:1,_ZZN10ServerNode12addParameterERKNSt7__cxx1112basic_stringIcSt11char_traitsIcESaIcEEERKSt7variantIJidS5_bSt6vectorIiSaIiEES9_IdSaIdEES9_IS5_SaIS5_EES9_IbSaIbEEEERKN14rcl_interfaces3msg20ParameterDescriptor_ISaIvEEEENKUlOT_E_clIRKiEEDaST_
FNDA:3,main
FNDA:0,_ZZN10ServerNode12addParameterERKNSt7__cxx1112basic_stringIcSt11char_traitsIcESaIcEEERKSt7variantIJidS5_bSt6vectorIiSaIiEES9_IdSaIdEES9_IS5_SaIS5_EES9_IbSaIbEEEERKN14rcl_interfaces3msg20ParameterDescriptor_ISaIvEEEENKUlOT_E_clIRKSB_EEDaST_
FNDA:3,_ZN10ServerNodeC2Ev
FNDA:0,_ZZN10ServerNode12addParameterERKNSt7__cxx1112basic_stringIcSt11char_traitsIcESaIcEEERKSt7variantIJidS5_bSt6vectorIiSaIiEES9_IdSaIdEES9_IS5_SaIS5_EES9_IbSaIbEEEERKN14rcl_interfaces3msg20ParameterDescriptor_ISaIvEEEENKUlOT_E_clIRKSF_EEDaST_
FNDA:0,_ZZN10ServerNode12addParameterERKNSt7__cxx1112basic_stringIcSt11char_traitsIcESaIcEEERKSt7variantIJidS5_bSt6vectorIiSaIiEES9_IdSaIdEES9_IS5_SaIS5_EES9_IbSaIbEEEERKN14rcl_interfaces3msg20ParameterDescriptor_ISaIvEEEENKUlOT_E_clIRKSH_EEDaST_
FNDA:0,_ZZN10ServerNode12addParameterERKNSt7__cxx1112basic_stringIcSt11char_traitsIcESaIcEEERKSt7variantIJidS5_bSt6vectorIiSaIiEES9_IdSaIdEES9_IS5_SaIS5_EES9_IbSaIbEEEERKN14rcl_interfaces3msg20ParameterDescriptor_ISaIvEEEENKUlOT_E_clIRKSD_EEDaST_
FNF:14
FNH:8
BRDA:31,0,0,3
BRDA:31,0,1,0
BRDA:31,0,2,3
BRDA:31,0,3,0
BRDA:34,0,0,3
BRDA:34,0,1,0
BRDA:45,0,0,2
BRDA:45,0,1,0
BRDA:45,0,2,2
BRDA:45,0,3,2
BRDA:48,0,0,2
BRDA:48,0,1,0
BRDA:49,0,0,2
BRDA:49,0,1,0
BRDA:50,0,0,2
BRDA:50,0,1,0
BRDA:56,0,0,3
BRDA:56,0,1,0
BRDA:56,0,2,3
BRDA:56,0,3,0
BRDA:56,0,4,3
BRDA:56,0,5,0
BRDA:56,0,6,3
BRDA:56,0,7,0
BRDA:57,0,0,3
BRDA:57,0,1,0
BRDA:57,0,2,3
BRDA:57,0,3,0
BRDA:57,0,4,3
BRDA:57,0,5,0
BRDA:57,0,6,3
BRDA:57,0,7,3
BRDA:58,0,0,3
BRDA:58,0,1,0
BRDA:58,0,2,3
BRDA:58,0,3,0
BRDA:58,0,4,3
BRDA:58,0,5,0
BRDA:58,0,6,3
BRDA:58,0,7,0
BRDA:58,0,8,3
BRDA:58,0,9,0
BRDA:58,0,10,3
BRDA:58,0,11,0
BRDA:58,0,12,3
BRDA:58,0,13,0
BRDA:58,0,14,3
BRDA:58,0,15,0
BRDA:58,0,16,0
BRDA:58,0,17,0
BRDA:58,0,18,0
BRDA:58,0,19,0
BRDA:60,0,0,3
BRDA:60,0,1,0
BRDA:60,0,2,2
BRDA:60,0,3,1
BRDA:61,0,0,2
BRDA:61,0,1,0
BRDA:62,0,0,0
BRDA:62,0,1,1
BRDA:63,0,0,0
BRDA:63,0,1,1
BRDA:63,0,2,0
BRDA:63,0,3,0
BRDA:63,0,4,0
BRDA:63,0,5,0
BRDA:63,0,6,0
BRDA:63,0,7,0
BRDA:63,0,8,0
BRDA:63,0,9,0
BRDA:63,0,10,0
BRDA:63,0,11,0
BRDA:63,0,12,0
BRDA:63,0,13,0
BRDA:63,0,14,0
BRDA:63,0,15,0
BRDA:63,0,16,0
BRDA:63,0,17,0
BRDA:63,0,18,1
BRDA:63,0,19,0
BRDA:63,0,20,1
BRDA:63,0,21,0
BRDA:63,0,22,1
BRDA:63,0,23,0
BRDA:63,0,24,1
BRDA:63,0,25,0
BRDA:63,0,26,1
BRDA:63,0,27,0
BRDA:63,0,28,1
BRDA:63,0,29,0
BRDA:76,0,0,2
BRDA:76,0,1,0
BRDA:79,0,0,2
BRDA:79,0,1,0
BRDA:79,0,2,2
BRDA:79,0,3,0
BRDA:93,0,0,3
BRDA:93,0,1,0
BRDA:93,0,2,3
BRDA:93,0,3,0
BRDA:93,0,4,3
BRDA:93,0,5,0
BRDA:95,0,0,3
BRDA:95,0,1,0
BRDA:96,0,0,3
BRDA:96,0,1,0
BRDA:96,0,2,3
BRDA:96,0,3,0
BRDA:97,0,0,3
BRDA:97,0,1,0
BRDA:98,0,0,3
BRDA:98,0,1,0
BRDA:99,0,0,3
BRDA:99,0,1,0
BRDA:102,0,0,3
BRDA:102,0,1,0
BRDA:102,0,2,3
BRDA:102,0,3,0
BRDA:105,0,0,3
BRDA:105,0,1,0
BRDA:107,0,0,3
BRDA:107,0,1,0
BRDA:109,0,0,3
BRDA:109,0,1,0
BRDA:110,0,0,3
BRDA:110,0,1,0
BRDA:110,0,2,3
BRDA:110,0,3,0
BRF:128
BRH:57
DA:30,3
DA:31,3
DA:34,3
DA:35,3
DA:37,3
DA:39,3
DA:42,2
DA:45,4
DA:46,2
DA:47,2
DA:48,2
DA:49,2
DA:50,2
DA:51,2
DA:52,2
DA:54,3
DA:56,6
DA:57,12
DA:58,3
DA:60,4
DA:61,2
DA:62,3
DA:63,1
DA:66,1
DA:68,3
DA:69,3
DA:72,2
DA:76,2
DA:77,2
DA:79,2
DA:82,2
DA:83,2
DA:85,2
DA:91,3
DA:93,3
DA:95,3
DA:96,6
DA:97,3
DA:98,3
DA:99,3
DA:102,6
DA:105,3
DA:107,3
DA:109,3
DA:110,3
DA:111,3
DA:112,3
LF:47
LH:47
end_of_record
