TN:
SF:/home/runner/work/ros2_uav_parameters/ros2_uav_parameters/src/ros2_uav_parameters/examples/parameter_client_usage.cpp
FN:25,_ZN8MyClientC2ERKNSt7__cxx1112basic_stringIcSt11char_traitsIcESaIcEEERKSt6vectorIS5_SaIS5_EE
FN:29,_ZZN8MyClientC4ERKNSt7__cxx1112basic_stringIcSt11char_traitsIcESaIcEEERKSt6vectorIS5_SaIS5_EEENKUlvE_clEv
FN:44,main
FNDA:1,_ZZN8MyClientC4ERKNSt7__cxx1112basic_stringIcSt11char_traitsIcESaIcEEERKSt6vectorIS5_SaIS5_EEENKUlvE_clEv
FNDA:1,main
FNDA:1,_ZN8MyClientC2ERKNSt7__cxx1112basic_stringIcSt11char_traitsIcESaIcEEERKSt6vectorIS5_SaIS5_EE
FNF:3
FNH:3
BRDA:26,0,0,1
BRDA:26,0,1,0
BRDA:26,0,2,1
BRDA:26,0,3,0
BRDA:31,0,0,1
BRDA:31,0,1,0
BRDA:31,0,2,1
BRDA:31,0,3,0
BRDA:31,0,4,1
BRDA:31,0,5,0
BRDA:32,0,0,1
BRDA:32,0,1,0
BRDA:32,0,2,1
BRDA:32,0,3,0
BRDA:32,0,4,1
BRDA:32,0,5,0
BRDA:33,0,0,1
BRDA:33,0,1,0
BRDA:33,0,2,1
BRDA:33,0,3,0
BRDA:37,0,0,1
BRDA:37,0,1,0
BRDA:46,0,0,1
BRDA:46,0,1,0
BRDA:46,0,2,1
BRDA:46,0,3,0
BRDA:46,0,4,1
BRDA:46,0,5,0
BRDA:50,0,0,1
BRDA:50,0,1,0
BRDA:50,0,2,1
BRDA:50,0,3,0
BRDA:50,0,4,1
BRDA:50,0,5,0
BRDA:55,0,0,1
BRDA:55,0,1,0
BRDA:58,0,0,1
BRDA:58,0,1,0
BRDA:58,0,2,1
BRDA:58,0,3,0
BRDA:62,0,0,1
BRDA:62,0,1,0
BRDA:63,0,0,1
BRDA:63,0,1,0
BRDA:63,0,2,1
BRDA:63,0,3,0
BRF:46
BRH:23
DA:25,1
DA:26,1
DA:29,2
DA:31,1
DA:32,1
DA:33,2
DA:36,1
DA:37,1
DA:38,1
DA:44,1
DA:46,1
DA:50,5
DA:55,1
DA:58,1
DA:59,1
DA:62,1
DA:63,1
DA:64,1
DA:65,1
LF:19
LH:19
end_of_record
TN:
SF:/home/runner/work/ros2_uav_parameters/ros2_uav_parameters/src/ros2_uav_parameters/src/parameter_client.cpp
FN:22,_ZN8ros2_uav10parameters15ParameterClientC2ERKNSt7__cxx1112basic_stringIcSt11char_traitsIcESaIcEEERKSt6vectorIS7_SaIS7_EES9_
FN:56,_ZZN8ros2_uav10parameters15ParameterClientC4ERKNSt7__cxx1112basic_stringIcSt11char_traitsIcESaIcEEERKSt6vectorIS7_SaIS7_EES9_ENKUlvE_clEv
FN:59,_ZN8ros2_uav10parameters15ParameterClientD2Ev
FN:59,_ZN8ros2_uav10parameters15ParameterClientD0Ev
FN:66,_ZN8ros2_uav10parameters15ParameterClient18registerParametersEv
FNDA:0,_ZN8ros2_uav10parameters15ParameterClientD0Ev
FNDA:2,_ZN8ros2_uav10parameters15ParameterClient18registerParametersEv
FNDA:4,_ZN8ros2_uav10parameters15ParameterClientC2ERKNSt7__cxx1112basic_stringIcSt11char_traitsIcESaIcEEERKSt6vectorIS7_SaIS7_EES9_
FNDA:2,_ZN8ros2_uav10parameters15ParameterClientD2Ev
FNDA:2,_ZZN8ros2_uav10parameters15ParameterClientC4ERKNSt7__cxx1112basic_stringIcSt11char_traitsIcESaIcEEERKSt6vectorIS7_SaIS7_EES9_ENKUlvE_clEv
FNF:5
FNH:4
BRDA:25,0,0,4
BRDA:25,0,1,0
BRDA:25,0,2,4
BRDA:25,0,3,0
BRDA:27,0,0,2
BRDA:27,0,1,2
BRDA:28,0,0,2
BRDA:28,0,1,0
BRDA:28,0,2,2
BRDA:28,0,3,0
BRDA:28,0,4,1
BRDA:28,0,5,1
BRDA:29,0,0,1
BRDA:29,0,1,0
BRDA:31,0,0,1
BRDA:31,0,1,0
BRDA:31,0,2,1
BRDA:31,0,3,0
BRDA:31,0,4,1
BRDA:31,0,5,0
BRDA:34,0,0,4
BRDA:34,0,1,0
BRDA:35,0,0,0
BRDA:35,0,1,4
BRDA:35,0,2,0
BRDA:35,0,3,0
BRDA:35,0,4,0
BRDA:35,0,5,0
BRDA:35,0,6,0
BRDA:35,0,7,0
BRDA:35,0,8,0
BRDA:35,0,9,0
BRDA:35,0,10,0
BRDA:35,0,11,0
BRDA:35,0,12,0
BRDA:35,0,13,0
BRDA:35,0,14,0
BRDA:35,0,15,0
BRDA:35,0,16,0
BRDA:35,0,17,0
BRDA:35,0,18,4
BRDA:35,0,19,0
BRDA:35,0,20,4
BRDA:35,0,21,0
BRDA:35,0,22,4
BRDA:35,0,23,0
BRDA:35,0,24,4
BRDA:35,0,25,0
BRDA:35,0,26,4
BRDA:35,0,27,0
BRDA:36,0,0,4
BRDA:36,0,1,0
BRDA:36,0,2,4
BRDA:36,0,3,0
BRDA:36,0,4,1
BRDA:36,0,5,3
BRDA:37,0,0,1
BRDA:37,0,1,0
BRDA:37,0,2,1
BRDA:37,0,3,0
BRDA:37,0,4,1
BRDA:37,0,5,0
BRDA:40,0,0,3
BRDA:40,0,1,0
BRDA:40,0,2,3
BRDA:40,0,3,0
BRDA:41,0,0,7
BRDA:41,0,1,2
BRDA:42,0,0,7
BRDA:42,0,1,0
BRDA:42,0,2,1
BRDA:42,0,3,6
BRDA:43,0,0,1
BRDA:43,0,1,0
BRDA:44,0,0,1
BRDA:44,0,1,0
BRDA:44,0,2,1
BRDA:44,0,3,0
BRDA:48,0,0,2
BRDA:48,0,1,0
BRDA:48,0,2,2
BRDA:48,0,3,0
BRDA:49,0,0,2
BRDA:49,0,1,0
BRDA:51,0,0,4
BRDA:51,0,1,2
BRDA:53,0,0,4
BRDA:53,0,1,0
BRDA:53,0,2,4
BRDA:53,0,3,0
BRDA:54,0,0,4
BRDA:54,0,1,0
BRDA:56,0,0,2
BRDA:56,0,1,0
BRDA:61,0,0,2
BRDA:61,0,1,0
BRDA:68,0,0,4
BRDA:68,0,1,2
BRDA:70,0,0,4
BRDA:70,0,1,0
BRDA:71,0,0,4
BRDA:71,0,1,0
BRDA:73,0,0,4
BRDA:73,0,1,0
BRDA:73,0,2,4
BRDA:73,0,3,0
BRDA:73,0,4,4
BRDA:73,0,5,0
BRDA:76,0,0,4
BRDA:76,0,1,0
BRDA:78,0,0,4
BRDA:78,0,1,0
BRDA:79,0,0,4
BRDA:79,0,1,0
BRDA:79,0,2,4
BRDA:79,0,3,0
BRDA:81,0,0,4
BRDA:81,0,1,0
BRDA:81,0,2,4
BRDA:81,0,3,0
BRDA:81,0,4,0
BRDA:81,0,5,4
BRDA:89,0,0,0
BRDA:89,0,1,4
BRDA:89,0,2,0
BRDA:89,0,3,0
BRDA:89,0,4,0
BRDA:89,0,5,0
BRDA:89,0,6,0
BRDA:89,0,7,0
BRDA:89,0,8,0
BRDA:89,0,9,0
BRDA:89,0,10,0
BRDA:89,0,11,0
BRDA:89,0,12,0
BRDA:89,0,13,0
BRDA:89,0,14,0
BRDA:89,0,15,0
BRDA:89,0,16,0
BRDA:89,0,17,0
BRDA:89,0,18,4
BRDA:89,0,19,0
BRDA:89,0,20,4
BRDA:89,0,21,0
BRDA:89,0,22,4
BRDA:89,0,23,0
BRDA:89,0,24,4
BRDA:89,0,25,0
BRDA:89,0,26,4
BRDA:89,0,27,0
BRDA:89,0,28,4
BRDA:89,0,29,0
BRDA:92,0,0,4
BRDA:92,0,1,0
BRDA:93,0,0,4
BRDA:93,0,1,0
BRDA:93,0,2,4
BRDA:93,0,3,0
BRDA:94,0,0,4
BRDA:94,0,1,0
BRDA:95,0,0,0
BRDA:95,0,1,4
BRF:162
BRH:72
DA:22,4
DA:24,4
DA:25,4
DA:27,4
DA:28,2
DA:29,1
DA:31,1
DA:34,4
DA:35,4
DA:36,4
DA:37,1
DA:40,3
DA:41,9
DA:42,7
DA:43,1
DA:44,2
DA:48,2
DA:49,2
DA:51,6
DA:52,8
DA:53,4
DA:54,8
DA:56,4
DA:57,14
DA:59,2
DA:61,2
DA:62,2
DA:64,2
DA:66,2
DA:68,6
DA:69,4
DA:70,4
DA:71,4
DA:72,4
DA:73,4
DA:76,4
DA:78,4
DA:79,4
DA:80,4
DA:81,4
DA:89,4
DA:92,4
DA:93,4
DA:94,4
DA:95,4
DA:102,4
DA:103,2
LF:47
LH:47
end_of_record
TN:
SF:/home/runner/work/ros2_uav_parameters/ros2_uav_parameters/src/ros2_uav_parameters/src/parameter_server.cpp
FN:31,_ZN10ServerNodeC2Ev
FN:43,_ZN10ServerNode14initParametersERKN7uav_cpp10parameters19YamlParameterParserIN8ros2_uav10parameters15ServerParameterEEE
FN:59,_ZN10ServerNode27loadParametersFromDirectoryEv
FN:80,main
FNDA:3,_ZN10ServerNode27loadParametersFromDirectoryEv
FNDA:3,main
FNDA:3,_ZN10ServerNodeC2Ev
FNDA:9,_ZN10ServerNode14initParametersERKN7uav_cpp10parameters19YamlParameterParserIN8ros2_uav10parameters15ServerParameterEEE
FNF:4
FNH:4
BRDA:32,0,0,3
BRDA:32,0,1,0
BRDA:32,0,2,3
BRDA:32,0,3,0
BRDA:35,0,0,3
BRDA:35,0,1,0
BRDA:45,0,0,9
BRDA:45,0,1,0
BRDA:46,0,0,35
BRDA:46,0,1,9
BRDA:47,0,0,35
BRDA:47,0,1,0
BRDA:47,0,2,0
BRDA:47,0,3,35
BRDA:48,0,0,-
BRDA:48,0,1,-
BRDA:49,0,0,-
BRDA:49,0,1,-
BRDA:49,0,2,-
BRDA:49,0,3,-
BRDA:52,0,0,35
BRDA:52,0,1,0
BRDA:52,0,2,35
BRDA:52,0,3,0
BRDA:53,0,0,35
BRDA:53,0,1,0
BRDA:54,0,0,35
BRDA:54,0,1,0
BRDA:55,0,0,35
BRDA:55,0,1,0
BRDA:61,0,0,3
BRDA:61,0,1,0
BRDA:61,0,2,3
BRDA:61,0,3,0
BRDA:61,0,4,3
BRDA:61,0,5,0
BRDA:61,0,6,3
BRDA:61,0,7,0
BRDA:62,0,0,3
BRDA:62,0,1,0
BRDA:62,0,2,3
BRDA:62,0,3,0
BRDA:62,0,4,9
BRDA:62,0,5,0
BRDA:62,0,6,9
BRDA:62,0,7,3
BRDA:63,0,0,9
BRDA:63,0,1,0
BRDA:63,0,2,9
BRDA:63,0,3,0
BRDA:63,0,4,9
BRDA:63,0,5,0
BRDA:63,0,6,9
BRDA:63,0,7,0
BRDA:63,0,8,9
BRDA:63,0,9,0
BRDA:63,0,10,9
BRDA:63,0,11,0
BRDA:63,0,12,9
BRDA:63,0,13,0
BRDA:63,0,14,9
BRDA:63,0,15,0
BRDA:63,0,16,0
BRDA:63,0,17,0
BRDA:63,0,18,0
BRDA:63,0,19,0
BRDA:65,0,0,9
BRDA:65,0,1,0
BRDA:65,0,2,9
BRDA:65,0,3,0
BRDA:66,0,0,9
BRDA:66,0,1,0
BRDA:67,0,0,0
BRDA:67,0,1,0
BRDA:68,0,0,0
BRDA:68,0,1,0
BRDA:68,0,2,0
BRDA:68,0,3,0
BRDA:68,0,4,0
BRDA:68,0,5,0
BRDA:82,0,0,3
BRDA:82,0,1,0
BRDA:82,0,2,3
BRDA:82,0,3,0
BRDA:82,0,4,3
BRDA:82,0,5,0
BRDA:84,0,0,3
BRDA:84,0,1,0
BRDA:86,0,0,3
BRDA:86,0,1,0
BRDA:86,0,2,3
BRDA:86,0,3,0
BRDA:87,0,0,3
BRDA:87,0,1,0
BRDA:88,0,0,3
BRDA:88,0,1,0
BRDA:89,0,0,3
BRDA:89,0,1,0
BRDA:90,0,0,3
BRDA:90,0,1,0
BRDA:90,0,2,3
BRDA:90,0,3,0
BRDA:93,0,0,3
BRDA:93,0,1,0
BRDA:93,0,2,3
BRDA:93,0,3,0
BRDA:97,0,0,3
BRDA:97,0,1,0
BRDA:99,0,0,3
BRDA:99,0,1,0
BRDA:101,0,0,3
BRDA:101,0,1,0
BRDA:102,0,0,3
BRDA:102,0,1,0
BRDA:102,0,2,3
BRDA:102,0,3,0
BRF:116
BRH:51
DA:31,3
DA:32,3
DA:35,3
DA:36,3
DA:43,9
DA:45,9
DA:46,44
DA:47,35
DA:48,0
DA:49,0
DA:50,0
DA:52,70
DA:53,35
DA:54,35
DA:55,35
DA:57,9
DA:59,3
DA:61,6
DA:62,18
DA:63,9
DA:65,9
DA:66,9
DA:67,9
DA:68,0
DA:71,0
DA:72,0
DA:74,3
DA:75,3
DA:80,3
DA:82,3
DA:84,3
DA:86,6
DA:87,3
DA:88,3
DA:89,3
DA:90,3
DA:93,3
DA:94,3
DA:97,3
DA:99,3
DA:101,3
DA:102,3
DA:103,3
DA:104,3
LF:44
LH:38
end_of_record
TN:
SF:/home/runner/work/ros2_uav_parameters/ros2_uav_parameters/src/ros2_uav_parameters/src/parameters/parameter.cpp
FN:22,_ZN8ros2_uav10parameters9ParameterC2ERKN6rclcpp9ParameterE
FN:54,_ZN8ros2_uav10parameters9ParameterC2EPN6rclcpp4NodeESt10shared_ptrINS2_21ParameterEventHandlerEERKNSt7__cxx1112basic_stringIcSt11char_traitsIcESaIcEEERKSt7variantIJldSD_bSt6vectorIlSaIlEESH_IdSaIdEESH_ISD_SaISD_EESH_IbSaIbEEEESF_
FN:63,_ZN8ros2_uav10parameters9ParameterC2ESt10shared_ptrIN6rclcpp4NodeEES2_INS3_21ParameterEventHandlerEERKNSt7__cxx1112basic_stringIcSt11char_traitsIcESaIcEEERKSt7variantIJldSD_bSt6vectorIlSaIlEESH_IdSaIdEESH_ISD_SaISD_EESH_IbSaIbEEEESF_
FN:71,_ZN8ros2_uav10parameters9Parameter17createRosCallbackEPN6rclcpp4NodeESt10shared_ptrINS2_21ParameterEventHandlerEE
FN:93,_ZZN8ros2_uav10parameters9Parameter17createRosCallbackEPN6rclcpp4NodeESt10shared_ptrINS2_21ParameterEventHandlerEEENKUlOT_E_clIRbEEDaS9_
FN:93,_ZZN8ros2_uav10parameters9Parameter17createRosCallbackEPN6rclcpp4NodeESt10shared_ptrINS2_21ParameterEventHandlerEEENKUlOT_E_clIRlEEDaS9_
FN:93,_ZZN8ros2_uav10parameters9Parameter17createRosCallbackEPN6rclcpp4NodeESt10shared_ptrINS2_21ParameterEventHandlerEEENKUlOT_E_clIRSt6vectorIbSaIbEEEEDaS9_
FN:93,_ZZN8ros2_uav10parameters9Parameter17createRosCallbackEPN6rclcpp4NodeESt10shared_ptrINS2_21ParameterEventHandlerEEENKUlOT_E_clIRSt6vectorINSt7__cxx1112basic_stringIcSt11char_traitsIcESaIcEEESaISI_EEEEDaS9_
FN:93,_ZZN8ros2_uav10parameters9Parameter17createRosCallbackEPN6rclcpp4NodeESt10shared_ptrINS2_21ParameterEventHandlerEEENKUlOT_E_clIRNSt7__cxx1112basic_stringIcSt11char_traitsIcESaIcEEEEEDaS9_
FN:93,_ZZN8ros2_uav10parameters9Parameter17createRosCallbackEPN6rclcpp4NodeESt10shared_ptrINS2_21ParameterEventHandlerEEENKUlOT_E_clIRdEEDaS9_
FN:93,_ZZN8ros2_uav10parameters9Parameter17createRosCallbackEPN6rclcpp4NodeESt10shared_ptrINS2_21ParameterEventHandlerEEENKUlOT_E_clIRSt6vectorIdSaIdEEEEDaS9_
FN:93,_ZZN8ros2_uav10parameters9Parameter17createRosCallbackEPN6rclcpp4NodeESt10shared_ptrINS2_21ParameterEventHandlerEEENKUlOT_E_clIRSt6vectorIlSaIlEEEEDaS9_
FN:102,_ZN8ros2_uav10parameters9Parameter17createRosCallbackESt10shared_ptrIN6rclcpp4NodeEES2_INS3_21ParameterEventHandlerEE
FN:109,_ZN8ros2_uav10parameters9Parameter23createParameterCallbackEv
FN:112,_ZZN8ros2_uav10parameters9Parameter23createParameterCallbackEvENKUlRKN6rclcpp9ParameterEE_clES5_
FN:117,_ZZN8ros2_uav10parameters9Parameter23createParameterCallbackEvENKUlRKN6rclcpp9ParameterEE0_clES5_
FN:122,_ZZN8ros2_uav10parameters9Parameter23createParameterCallbackEvENKUlRKN6rclcpp9ParameterEE1_clES5_
FN:127,_ZZN8ros2_uav10parameters9Parameter23createParameterCallbackEvENKUlRKN6rclcpp9ParameterEE2_clES5_
FN:132,_ZZN8ros2_uav10parameters9Parameter23createParameterCallbackEvENKUlRKN6rclcpp9ParameterEE3_clES5_
FN:137,_ZZN8ros2_uav10parameters9Parameter23createParameterCallbackEvENKUlRKN6rclcpp9ParameterEE4_clES5_
FN:142,_ZZN8ros2_uav10parameters9Parameter23createParameterCallbackEvENKUlRKN6rclcpp9ParameterEE5_clES5_
FN:147,_ZZN8ros2_uav10parameters9Parameter23createParameterCallbackEvENKUlRKN6rclcpp9ParameterEE6_clES5_
FN:159,_ZN8ros2_uav10parameters15ServerParameterC2EPN6rclcpp4NodeESt10shared_ptrINS2_21ParameterEventHandlerEERKNSt7__cxx1112basic_stringIcSt11char_traitsIcESaIcEEERKSt7variantIJldSD_bSt6vectorIlSaIlEESH_IdSaIdEESH_ISD_SaISD_EESH_IbSaIbEEEESF_
FN:168,_ZN8ros2_uav10parameters15ServerParameterC2ESt10shared_ptrIN6rclcpp4NodeEES2_INS3_21ParameterEventHandlerEERKNSt7__cxx1112basic_stringIcSt11char_traitsIcESaIcEEERKSt7variantIJldSD_bSt6vectorIlSaIlEESH_IdSaIdEESH_ISD_SaISD_EESH_IbSaIbEEEESF_
FN:176,_ZN8ros2_uav10parameters15ServerParameter21createRegisterServiceEPN6rclcpp4NodeE
FN:183,_ZZN8ros2_uav10parameters15ServerParameter21createRegisterServiceEPN6rclcpp4NodeEENKUlvE_clEv
FN:194,_ZZN8ros2_uav10parameters15ServerParameter21createRegisterServiceEPN6rclcpp4NodeEENKUlSt10shared_ptrIN19ros2_uav_interfaces3srv32ParameterClientRegister_Request_ISaIvEEEES5_INS7_33ParameterClientRegister_Response_IS9_EEEE0_clESB_SE_
FN:202,_ZN8ros2_uav10parameters15ServerParameter21createRegisterServiceESt10shared_ptrIN6rclcpp4NodeEE
FN:207,_ZN8ros2_uav10parameters15ServerParameter17onParameterChangeEv
FN:219,_ZZN8ros2_uav10parameters15ServerParameter17onParameterChangeEvENKUlOT_E_clIRdEEDaS3_
FN:219,_ZZN8ros2_uav10parameters15ServerParameter17onParameterChangeEvENKUlOT_E_clIRbEEDaS3_
FN:219,_ZZN8ros2_uav10parameters15ServerParameter17onParameterChangeEvENKUlOT_E_clIRlEEDaS3_
FN:219,_ZZN8ros2_uav10parameters15ServerParameter17onParameterChangeEvENKUlOT_E_clIRSt6vectorIbSaIbEEEEDaS3_
FN:219,_ZZN8ros2_uav10parameters15ServerParameter17onParameterChangeEvENKUlOT_E_clIRSt6vectorIlSaIlEEEEDaS3_
FN:219,_ZZN8ros2_uav10parameters15ServerParameter17onParameterChangeEvENKUlOT_E_clIRSt6vectorINSt7__cxx1112basic_stringIcSt11char_traitsIcESaIcEEESaISC_EEEEDaS3_
FN:219,_ZZN8ros2_uav10parameters15ServerParameter17onParameterChangeEvENKUlOT_E_clIRNSt7__cxx1112basic_stringIcSt11char_traitsIcESaIcEEEEEDaS3_
FN:219,_ZZN8ros2_uav10parameters15ServerParameter17onParameterChangeEvENKUlOT_E_clIRSt6vectorIdSaIdEEEEDaS3_
FN:243,_ZZN8ros2_uav10parameters15ServerParameter17onParameterChangeEvENKUlRT_E0_clISt4pairINSt7__cxx1112basic_stringIcSt11char_traitsIcESaIcEEESt10shared_ptrIN6rclcpp6ClientIN14rcl_interfaces3srv13SetParametersEEEEEEEDaS3_
FN:250,_ZN8ros2_uav10parameters15ServerParameter24handleClientRegistrationESt10shared_ptrIN19ros2_uav_interfaces3srv32ParameterClientRegister_Request_ISaIvEEEES2_INS4_33ParameterClientRegister_Response_IS6_EEE
FN:260,_ZZN8ros2_uav10parameters15ServerParameter24handleClientRegistrationESt10shared_ptrIN19ros2_uav_interfaces3srv32ParameterClientRegister_Request_ISaIvEEEES2_INS4_33ParameterClientRegister_Response_IS6_EEEENKUlRT_E_clISt4pairINSt7__cxx1112basic_stringIcSt11char_traitsIcESaIcEEES2_IN6rclcpp6ClientIN14rcl_interfaces3srv13SetParametersEEEEEEEDaSD_
FN:276,_ZZN8ros2_uav10parameters15ServerParameter24handleClientRegistrationESt10shared_ptrIN19ros2_uav_interfaces3srv32ParameterClientRegister_Request_ISaIvEEEES2_INS4_33ParameterClientRegister_Response_IS6_EEEENKUlRT_E0_clISt4pairINSt7__cxx1112basic_stringIcSt11char_traitsIcESaIcEEES2_IN6rclcpp6ClientIN14rcl_interfaces3srv13SetParametersEEEEEEEDaSD_
FNDA:0,_ZZN8ros2_uav10parameters15ServerParameter17onParameterChangeEvENKUlOT_E_clIRbEEDaS3_
FNDA:8,_ZZN8ros2_uav10parameters9Parameter23createParameterCallbackEvENKUlRKN6rclcpp9ParameterEE2_clES5_
FNDA:1,_ZN8ros2_uav10parameters15ServerParameter21createRegisterServiceESt10shared_ptrIN6rclcpp4NodeEE
FNDA:3,_ZZN8ros2_uav10parameters15ServerParameter17onParameterChangeEvENKUlOT_E_clIRlEEDaS3_
FNDA:66,_ZN8ros2_uav10parameters9Parameter23createParameterCallbackEv
FNDA:1,_ZZN8ros2_uav10parameters15ServerParameter17onParameterChangeEvENKUlOT_E_clIRdEEDaS3_
FNDA:1,_ZZN8ros2_uav10parameters15ServerParameter24handleClientRegistrationESt10shared_ptrIN19ros2_uav_interfaces3srv32ParameterClientRegister_Request_ISaIvEEEES2_INS4_33ParameterClientRegister_Response_IS6_EEEENKUlRT_E_clISt4pairINSt7__cxx1112basic_stringIcSt11char_traitsIcESaIcEEES2_IN6rclcpp6ClientIN14rcl_interfaces3srv13SetParametersEEEEEEEDaSD_
FNDA:2,_ZZN8ros2_uav10parameters9Parameter17createRosCallbackEPN6rclcpp4NodeESt10shared_ptrINS2_21ParameterEventHandlerEEENKUlOT_E_clIRSt6vectorIbSaIbEEEEDaS9_
FNDA:8,_ZN8ros2_uav10parameters9ParameterC2ESt10shared_ptrIN6rclcpp4NodeEES2_INS3_21ParameterEventHandlerEERKNSt7__cxx1112basic_stringIcSt11char_traitsIcESaIcEEERKSt7variantIJldSD_bSt6vectorIlSaIlEESH_IdSaIdEESH_ISD_SaISD_EESH_IbSaIbEEEESF_
FNDA:10,_ZN8ros2_uav10parameters15ServerParameter24handleClientRegistrationESt10shared_ptrIN19ros2_uav_interfaces3srv32ParameterClientRegister_Request_ISaIvEEEES2_INS4_33ParameterClientRegister_Response_IS6_EEE
FNDA:2,_ZZN8ros2_uav10parameters9Parameter17createRosCallbackEPN6rclcpp4NodeESt10shared_ptrINS2_21ParameterEventHandlerEEENKUlOT_E_clIRbEEDaS9_
FNDA:38,_ZZN8ros2_uav10parameters9Parameter23createParameterCallbackEvENKUlRKN6rclcpp9ParameterEE0_clES5_
FNDA:1,_ZZN8ros2_uav10parameters15ServerParameter17onParameterChangeEvENKUlRT_E0_clISt4pairINSt7__cxx1112basic_stringIcSt11char_traitsIcESaIcEEESt10shared_ptrIN6rclcpp6ClientIN14rcl_interfaces3srv13SetParametersEEEEEEEDaS3_
FNDA:1,_ZN8ros2_uav10parameters15ServerParameterC2ESt10shared_ptrIN6rclcpp4NodeEES2_INS3_21ParameterEventHandlerEERKNSt7__cxx1112basic_stringIcSt11char_traitsIcESaIcEEERKSt7variantIJldSD_bSt6vectorIlSaIlEESH_IdSaIdEESH_ISD_SaISD_EESH_IbSaIbEEEESF_
FNDA:4,_ZZN8ros2_uav10parameters9Parameter23createParameterCallbackEvENKUlRKN6rclcpp9ParameterEE1_clES5_
FNDA:16,_ZZN8ros2_uav10parameters9Parameter17createRosCallbackEPN6rclcpp4NodeESt10shared_ptrINS2_21ParameterEventHandlerEEENKUlOT_E_clIRlEEDaS9_
FNDA:2,_ZZN8ros2_uav10parameters9Parameter17createRosCallbackEPN6rclcpp4NodeESt10shared_ptrINS2_21ParameterEventHandlerEEENKUlOT_E_clIRNSt7__cxx1112basic_stringIcSt11char_traitsIcESaIcEEEEEDaS9_
FNDA:4,_ZZN8ros2_uav10parameters9Parameter23createParameterCallbackEvENKUlRKN6rclcpp9ParameterEE3_clES5_
FNDA:46,_ZN8ros2_uav10parameters15ServerParameter21createRegisterServiceEPN6rclcpp4NodeE
FNDA:19,_ZN8ros2_uav10parameters9ParameterC2EPN6rclcpp4NodeESt10shared_ptrINS2_21ParameterEventHandlerEERKNSt7__cxx1112basic_stringIcSt11char_traitsIcESaIcEEERKSt7variantIJldSD_bSt6vectorIlSaIlEESH_IdSaIdEESH_ISD_SaISD_EESH_IbSaIbEEEESF_
FNDA:49,_ZN8ros2_uav10parameters15ServerParameter17onParameterChangeEv
FNDA:16,_ZN8ros2_uav10parameters9Parameter17createRosCallbackESt10shared_ptrIN6rclcpp4NodeEES2_INS3_21ParameterEventHandlerEE
FNDA:13,_ZN8ros2_uav10parameters9ParameterC2ERKN6rclcpp9ParameterE
FNDA:0,_ZZN8ros2_uav10parameters15ServerParameter17onParameterChangeEvENKUlOT_E_clIRSt6vectorIbSaIbEEEEDaS3_
FNDA:49,_ZZN8ros2_uav10parameters15ServerParameter21createRegisterServiceEPN6rclcpp4NodeEENKUlvE_clEv
FNDA:24,_ZZN8ros2_uav10parameters9Parameter23createParameterCallbackEvENKUlRKN6rclcpp9ParameterEE_clES5_
FNDA:4,_ZZN8ros2_uav10parameters9Parameter23createParameterCallbackEvENKUlRKN6rclcpp9ParameterEE6_clES5_
FNDA:2,_ZZN8ros2_uav10parameters9Parameter17createRosCallbackEPN6rclcpp4NodeESt10shared_ptrINS2_21ParameterEventHandlerEEENKUlOT_E_clIRSt6vectorINSt7__cxx1112basic_stringIcSt11char_traitsIcESaIcEEESaISI_EEEEDaS9_
FNDA:4,_ZZN8ros2_uav10parameters9Parameter23createParameterCallbackEvENKUlRKN6rclcpp9ParameterEE5_clES5_
FNDA:0,_ZZN8ros2_uav10parameters15ServerParameter17onParameterChangeEvENKUlOT_E_clIRSt6vectorINSt7__cxx1112basic_stringIcSt11char_traitsIcESaIcEEESaISC_EEEEDaS3_
FNDA:4,_ZZN8ros2_uav10parameters9Parameter23createParameterCallbackEvENKUlRKN6rclcpp9ParameterEE4_clES5_
FNDA:34,_ZZN8ros2_uav10parameters9Parameter17createRosCallbackEPN6rclcpp4NodeESt10shared_ptrINS2_21ParameterEventHandlerEEENKUlOT_E_clIRdEEDaS9_
FNDA:74,_ZN8ros2_uav10parameters9Parameter17createRosCallbackEPN6rclcpp4NodeESt10shared_ptrINS2_21ParameterEventHandlerEE
FNDA:10,_ZZN8ros2_uav10parameters15ServerParameter21createRegisterServiceEPN6rclcpp4NodeEENKUlSt10shared_ptrIN19ros2_uav_interfaces3srv32ParameterClientRegister_Request_ISaIvEEEES5_INS7_33ParameterClientRegister_Response_IS9_EEEE0_clESB_SE_
FNDA:1,_ZZN8ros2_uav10parameters15ServerParameter24handleClientRegistrationESt10shared_ptrIN19ros2_uav_interfaces3srv32ParameterClientRegister_Request_ISaIvEEEES2_INS4_33ParameterClientRegister_Response_IS6_EEEENKUlRT_E0_clISt4pairINSt7__cxx1112basic_stringIcSt11char_traitsIcESaIcEEES2_IN6rclcpp6ClientIN14rcl_interfaces3srv13SetParametersEEEEEEEDaSD_
FNDA:6,_ZZN8ros2_uav10parameters9Parameter17createRosCallbackEPN6rclcpp4NodeESt10shared_ptrINS2_21ParameterEventHandlerEEENKUlOT_E_clIRSt6vectorIdSaIdEEEEDaS9_
FNDA:2,_ZZN8ros2_uav10parameters9Parameter17createRosCallbackEPN6rclcpp4NodeESt10shared_ptrINS2_21ParameterEventHandlerEEENKUlOT_E_clIRSt6vectorIlSaIlEEEEDaS9_
FNDA:10,_ZN8ros2_uav10parameters15ServerParameterC2EPN6rclcpp4NodeESt10shared_ptrINS2_21ParameterEventHandlerEERKNSt7__cxx1112basic_stringIcSt11char_traitsIcESaIcEEERKSt7variantIJldSD_bSt6vectorIlSaIlEESH_IdSaIdEESH_ISD_SaISD_EESH_IbSaIbEEEESF_
FNDA:0,_ZZN8ros2_uav10parameters15ServerParameter17onParameterChangeEvENKUlOT_E_clIRNSt7__cxx1112basic_stringIcSt11char_traitsIcESaIcEEEEEDaS3_
FNDA:0,_ZZN8ros2_uav10parameters15ServerParameter17onParameterChangeEvENKUlOT_E_clIRSt6vectorIdSaIdEEEEDaS3_
FNDA:0,_ZZN8ros2_uav10parameters15ServerParameter17onParameterChangeEvENKUlOT_E_clIRSt6vectorIlSaIlEEEEDaS3_
FNF:41
FNH:35
BRDA:24,0,0,13
BRDA:24,0,1,0
BRDA:24,0,2,13
BRDA:24,0,3,0
BRDA:25,0,0,13
BRDA:25,0,1,0
BRDA:25,0,2,3
BRDA:25,0,3,10
BRDA:26,0,0,3
BRDA:26,0,1,0
BRDA:29,0,0,10
BRDA:29,0,1,0
BRDA:29,0,2,3
BRDA:29,0,3,7
BRDA:30,0,0,3
BRDA:30,0,1,0
BRDA:33,0,0,7
BRDA:33,0,1,0
BRDA:33,0,2,1
BRDA:33,0,3,6
BRDA:34,0,0,1
BRDA:34,0,1,0
BRDA:34,0,2,1
BRDA:34,0,3,0
BRDA:35,0,0,6
BRDA:35,0,1,0
BRDA:35,0,2,1
BRDA:35,0,3,5
BRDA:36,0,0,1
BRDA:36,0,1,0
BRDA:37,0,0,5
BRDA:37,0,1,0
BRDA:37,0,2,1
BRDA:37,0,3,4
BRDA:38,0,0,1
BRDA:38,0,1,0
BRDA:38,0,2,1
BRDA:38,0,3,0
BRDA:41,0,0,4
BRDA:41,0,1,0
BRDA:41,0,2,1
BRDA:41,0,3,3
BRDA:42,0,0,1
BRDA:42,0,1,0
BRDA:42,0,2,1
BRDA:42,0,3,0
BRDA:45,0,0,3
BRDA:45,0,1,0
BRDA:45,0,2,1
BRDA:45,0,3,2
BRDA:46,0,0,1
BRDA:46,0,1,0
BRDA:46,0,2,1
BRDA:46,0,3,0
BRDA:47,0,0,2
BRDA:47,0,1,0
BRDA:47,0,2,1
BRDA:47,0,3,1
BRDA:48,0,0,1
BRDA:48,0,1,0
BRDA:48,0,2,1
BRDA:48,0,3,0
BRDA:50,0,0,1
BRDA:50,0,1,0
BRDA:60,0,0,19
BRDA:60,0,1,0
BRDA:67,0,0,8
BRDA:67,0,1,0
BRDA:75,0,0,8
BRDA:75,0,1,66
BRDA:76,0,0,8
BRDA:76,0,1,0
BRDA:76,0,2,8
BRDA:76,0,3,0
BRDA:79,0,0,66
BRDA:79,0,1,0
BRDA:80,0,0,66
BRDA:80,0,1,0
BRDA:81,0,0,16
BRDA:81,0,1,50
BRDA:83,0,0,16
BRDA:83,0,1,0
BRDA:84,0,0,16
BRDA:84,0,1,0
BRDA:85,0,0,16
BRDA:85,0,1,0
BRDA:85,0,2,16
BRDA:85,0,3,0
BRDA:86,0,0,34
BRDA:86,0,1,16
BRDA:88,0,0,34
BRDA:88,0,1,0
BRDA:89,0,0,34
BRDA:89,0,1,0
BRDA:90,0,0,34
BRDA:90,0,1,0
BRDA:90,0,2,34
BRDA:90,0,3,0
BRDA:92,0,0,66
BRDA:92,0,1,0
BRDA:92,0,2,66
BRDA:92,0,3,0
BRDA:97,0,0,66
BRDA:97,0,1,0
BRDA:98,0,0,66
BRDA:98,0,1,0
BRDA:99,0,0,66
BRDA:99,0,1,0
BRDA:106,0,0,16
BRDA:106,0,1,0
BRDA:111,0,0,16
BRDA:111,0,1,50
BRDA:113,0,0,24
BRDA:113,0,1,0
BRDA:114,0,0,24
BRDA:114,0,1,0
BRDA:116,0,0,34
BRDA:116,0,1,16
BRDA:118,0,0,38
BRDA:118,0,1,0
BRDA:119,0,0,38
BRDA:119,0,1,0
BRDA:121,0,0,2
BRDA:121,0,1,14
BRDA:123,0,0,4
BRDA:123,0,1,0
BRDA:124,0,0,4
BRDA:124,0,1,0
BRDA:126,0,0,6
BRDA:126,0,1,8
BRDA:128,0,0,8
BRDA:128,0,1,0
BRDA:129,0,0,8
BRDA:129,0,1,0
BRDA:131,0,0,2
BRDA:131,0,1,6
BRDA:133,0,0,4
BRDA:133,0,1,0
BRDA:134,0,0,4
BRDA:134,0,1,0
BRDA:136,0,0,2
BRDA:136,0,1,4
BRDA:138,0,0,4
BRDA:138,0,1,0
BRDA:139,0,0,4
BRDA:139,0,1,0
BRDA:141,0,0,2
BRDA:141,0,1,2
BRDA:143,0,0,4
BRDA:143,0,1,0
BRDA:144,0,0,4
BRDA:144,0,1,0
BRDA:146,0,0,2
BRDA:146,0,1,0
BRDA:148,0,0,4
BRDA:148,0,1,0
BRDA:149,0,0,4
BRDA:149,0,1,0
BRDA:163,0,0,10
BRDA:163,0,1,0
BRDA:165,0,0,10
BRDA:165,0,1,0
BRDA:172,0,0,1
BRDA:172,0,1,0
BRDA:178,0,0,1
BRDA:178,0,1,45
BRDA:179,0,0,1
BRDA:179,0,1,0
BRDA:179,0,2,1
BRDA:179,0,3,0
BRDA:183,0,0,45
BRDA:183,0,1,0
BRDA:185,0,0,45
BRDA:185,0,1,0
BRDA:187,0,0,45
BRDA:187,0,1,0
BRDA:188,0,0,45
BRDA:188,0,1,0
BRDA:188,0,2,45
BRDA:188,0,3,0
BRDA:188,0,4,45
BRDA:188,0,5,0
BRDA:188,0,6,45
BRDA:188,0,7,0
BRDA:191,0,0,45
BRDA:191,0,1,0
BRDA:191,0,2,45
BRDA:191,0,3,0
BRDA:192,0,0,45
BRDA:192,0,1,0
BRDA:198,0,0,10
BRDA:198,0,1,0
BRDA:210,0,0,5
BRDA:210,0,1,49
BRDA:214,0,0,5
BRDA:214,0,1,0
BRDA:214,0,2,5
BRDA:214,0,3,0
BRDA:214,0,4,1
BRDA:214,0,5,4
BRDA:215,0,0,1
BRDA:215,0,1,0
BRDA:217,0,0,4
BRDA:217,0,1,0
BRDA:218,0,0,4
BRDA:218,0,1,0
BRDA:220,0,0,-
BRDA:220,0,1,-
BRDA:222,0,0,4
BRDA:222,0,1,0
BRDA:223,0,0,4
BRDA:223,0,1,0
BRDA:224,0,0,4
BRDA:224,0,1,0
BRDA:225,0,0,4
BRDA:225,0,1,0
BRDA:226,0,0,4
BRDA:226,0,1,0
BRDA:226,0,2,4
BRDA:226,0,3,0
BRDA:229,0,0,0
BRDA:229,0,1,1
BRDA:230,0,0,1
BRDA:230,0,1,0
BRDA:230,0,2,1
BRDA:230,0,3,0
BRDA:233,0,0,1
BRDA:233,0,1,0
BRDA:233,0,2,1
BRDA:233,0,3,0
BRDA:236,0,0,1
BRDA:236,0,1,0
BRDA:240,0,0,1
BRDA:240,0,1,49
BRDA:241,0,0,1
BRDA:241,0,1,0
BRDA:244,0,0,1
BRDA:244,0,1,0
BRDA:245,0,0,1
BRDA:245,0,1,0
BRDA:254,0,0,10
BRDA:254,0,1,0
BRDA:255,0,0,8
BRDA:255,0,1,2
BRDA:256,0,0,8
BRDA:256,0,1,0
BRDA:256,0,2,8
BRDA:256,0,3,0
BRDA:258,0,0,8
BRDA:258,0,1,0
BRDA:261,0,0,1
BRDA:261,0,1,7
BRDA:263,0,0,1
BRDA:263,0,1,0
BRDA:263,0,2,1
BRDA:263,0,3,0
BRDA:265,0,0,1
BRDA:265,0,1,0
BRDA:269,0,0,7
BRDA:269,0,1,0
BRDA:269,0,2,7
BRDA:269,0,3,0
BRDA:271,0,0,7
BRDA:271,0,1,0
BRDA:271,0,2,7
BRDA:271,0,3,0
BRDA:273,0,0,2
BRDA:273,0,1,0
BRDA:273,0,2,2
BRDA:273,0,3,0
BRDA:274,0,0,2
BRDA:274,0,1,0
BRDA:277,0,0,1
BRDA:277,0,1,1
BRDA:278,0,0,1
BRDA:278,0,1,0
BRDA:281,0,0,1
BRDA:281,0,1,0
BRDA:281,0,2,1
BRDA:281,0,3,0
BRDA:283,0,0,1
BRDA:283,0,1,0
BRDA:286,0,0,9
BRDA:286,0,1,1
BRF:284
BRH:167
DA:22,13
DA:24,13
DA:25,13
DA:26,3
DA:27,3
DA:28,3
DA:29,10
DA:30,3
DA:31,3
DA:32,3
DA:33,7
DA:34,1
DA:35,6
DA:36,1
DA:37,5
DA:38,1
DA:39,1
DA:40,1
DA:41,4
DA:42,1
DA:43,1
DA:44,1
DA:45,3
DA:46,1
DA:47,2
DA:48,1
DA:50,1
DA:52,14
DA:54,19
DA:57,19
DA:58,19
DA:60,19
DA:61,19
DA:63,8
DA:66,8
DA:67,8
DA:69,8
DA:71,74
DA:75,74
DA:76,16
DA:77,8
DA:79,66
DA:80,66
DA:81,66
DA:82,16
DA:83,16
DA:84,16
DA:85,16
DA:86,50
DA:87,34
DA:88,34
DA:89,34
DA:90,34
DA:92,66
DA:93,66
DA:94,66
DA:95,132
DA:97,198
DA:98,66
DA:99,198
DA:100,66
DA:102,16
DA:106,16
DA:107,16
DA:109,66
DA:111,66
DA:112,48
DA:113,24
DA:114,24
DA:115,40
DA:116,50
DA:117,76
DA:118,38
DA:119,38
DA:120,72
DA:121,16
DA:122,8
DA:123,4
DA:124,4
DA:125,6
DA:126,14
DA:127,16
DA:128,8
DA:129,8
DA:130,14
DA:131,8
DA:132,8
DA:133,4
DA:134,4
DA:135,6
DA:136,6
DA:137,8
DA:138,4
DA:139,4
DA:140,6
DA:141,4
DA:142,8
DA:143,4
DA:144,4
DA:145,6
DA:146,2
DA:147,8
DA:148,4
DA:149,4
DA:150,6
DA:159,10
DA:162,10
DA:163,10
DA:165,10
DA:166,10
DA:168,1
DA:171,1
DA:172,1
DA:174,1
DA:176,46
DA:178,46
DA:179,2
DA:180,1
DA:182,45
DA:183,94
DA:185,45
DA:186,45
DA:187,45
DA:188,45
DA:191,90
DA:192,90
DA:194,10
DA:196,10
DA:198,10
DA:199,55
DA:200,45
DA:202,1
DA:204,1
DA:205,1
DA:207,49
DA:209,49
DA:210,54
DA:211,5
DA:214,5
DA:215,1
DA:217,4
DA:218,4
DA:219,8
DA:220,4
DA:221,8
DA:222,4
DA:223,4
DA:224,4
DA:225,4
DA:226,8
DA:229,5
DA:230,2
DA:233,2
DA:236,1
DA:237,1
DA:238,5
DA:240,50
DA:241,1
DA:243,1
DA:244,1
DA:245,1
DA:248,49
DA:250,10
DA:254,10
DA:255,10
DA:256,16
DA:258,8
DA:260,1
DA:261,16
DA:263,2
DA:264,1
DA:265,1
DA:266,1
DA:268,7
DA:269,14
DA:270,7
DA:271,7
DA:272,7
DA:273,4
DA:274,2
DA:276,1
DA:277,2
DA:278,1
DA:279,1
DA:281,2
DA:282,1
DA:283,1
DA:286,10
LF:188
LH:188
end_of_record
